

Microchip MPLAB XC8 Assembler V2.40 build 20220703182018 
                                                                                               Wed Mar 08 22:53:42 2023

Microchip MPLAB XC8 C Compiler v2.40 (Free license) build 20220703182018 Og1 
     1                           	processor	16F887
     2                           	pagewidth 120
     3                           	opt	flic
     4                           	psect	strings,global,class=STRING,delta=2,noexec
     5                           	psect	cinit,global,class=CODE,merge=1,delta=2
     6                           	psect	bssBANK0,global,class=BANK0,space=1,delta=1,noexec
     7                           	psect	clrtext,global,class=CODE,delta=2
     8                           	psect	cstackCOMMON,global,class=COMMON,space=1,delta=1,noexec
     9                           	psect	cstackBANK0,global,class=BANK0,space=1,delta=1,noexec
    10                           	psect	maintext,global,class=CODE,split=1,delta=2
    11                           	psect	text1,local,class=CODE,merge=1,delta=2,group=1
    12                           	psect	text2,local,class=CODE,merge=1,delta=2,group=2
    13                           	psect	text3,local,class=CODE,merge=1,delta=2,group=2
    14                           	psect	text4,local,class=CODE,merge=1,delta=2
    15                           	psect	text5,local,class=CODE,merge=1,delta=2
    16                           	psect	text6,local,class=CODE,merge=1,delta=2
    17                           	psect	text7,local,class=CODE,merge=1,delta=2
    18                           	psect	text8,local,class=CODE,merge=1,delta=2,group=2
    19                           	psect	text9,local,class=CODE,merge=1,delta=2,group=2
    20                           	psect	text10,local,class=CODE,merge=1,delta=2
    21                           	psect	text11,local,class=CODE,merge=1,delta=2
    22                           	psect	text12,local,class=CODE,merge=1,delta=2
    23                           	psect	text13,local,class=CODE,merge=1,delta=2
    24                           	psect	text14,local,class=CODE,merge=1,delta=2
    25                           	psect	text15,local,class=CODE,merge=1,delta=2
    26                           	psect	text16,local,class=CODE,merge=1,delta=2
    27                           	psect	text17,local,class=CODE,merge=1,delta=2
    28                           	psect	text18,local,class=CODE,merge=1,delta=2
    29                           	psect	text19,local,class=CODE,merge=1,delta=2
    30                           	psect	text20,local,class=CODE,merge=1,delta=2
    31                           	psect	idloc,global,abs,ovrld,class=IDLOC,space=5,delta=2,noexec
    32                           	psect	config,global,abs,ovrld,class=CONFIG,space=4,delta=2,noexec
    33                           	dabs	1,0x7E,2
    34     0000                     
    35                           ; Version 2.40
    36                           ; Generated 17/11/2021 GMT
    37                           ; 
    38                           ; Copyright © 2021, Microchip Technology Inc. and its subsidiaries ("Microchip")
    39                           ; All rights reserved.
    40                           ; 
    41                           ; This software is developed by Microchip Technology Inc. and its subsidiaries ("Microch
      +                          ip").
    42                           ; 
    43                           ; Redistribution and use in source and binary forms, with or without modification, are
    44                           ; permitted provided that the following conditions are met:
    45                           ; 
    46                           ;     1. Redistributions of source code must retain the above copyright notice, this lis
      +                          t of
    47                           ;        conditions and the following disclaimer.
    48                           ; 
    49                           ;     2. Redistributions in binary form must reproduce the above copyright notice, this 
      +                          list
    50                           ;        of conditions and the following disclaimer in the documentation and/or other
    51                           ;        materials provided with the distribution. Publication is not required when
    52                           ;        this file is used in an embedded application.
    53                           ; 
    54                           ;     3. Microchip's name may not be used to endorse or promote products derived from th
      +                          is
    55                           ;        software without specific prior written permission.
    56                           ; 
    57                           ; THIS SOFTWARE IS PROVIDED BY MICROCHIP "AS IS" AND ANY EXPRESS OR IMPLIED WARRANTIES,
    58                           ; INCLUDING, BUT NOT LIMITED TO, THE IMPLIED WARRANTIES OF MERCHANTABILITY AND FITNESS F
      +                          OR
    59                           ; PURPOSE ARE DISCLAIMED.  IN NO EVENT SHALL MICROCHIP BE LIABLE FOR ANY DIRECT, INDIREC
      +                          T,
    60                           ; INCIDENTAL, SPECIAL, EXEMPLARY, OR CONSEQUENTIAL DAMAGES (INCLUDING BUT NOT LIMITED TO
    61                           ; PROCUREMENT OF SUBSTITUTE GOODS OR SERVICES; LOSS OF USE, DATA OR PROFITS; OR BUSINESS
    62                           ; INTERRUPTION) HOWSOEVER CAUSED AND ON ANY THEORY OF LIABILITY, WHETHER IN CONTRACT, ST
      +                          RICT
    63                           ; LIABILITY, OR TORT (INCLUDING NEGLIGENCE OR OTHERWISE) ARISING IN ANY WAY OUT OF THE U
      +                          SE OF
    64                           ; THIS SOFTWARE, EVEN IF ADVISED OF THE POSSIBILITY OF SUCH DAMAGE.
    65                           ; 
    66                           ; 
    67                           ; Code-generator required, PIC16F887 Definitions
    68                           ; 
    69                           ; SFR Addresses
    70     0000                     	;# 
    71     0001                     	;# 
    72     0002                     	;# 
    73     0003                     	;# 
    74     0004                     	;# 
    75     0005                     	;# 
    76     0006                     	;# 
    77     0007                     	;# 
    78     0008                     	;# 
    79     0009                     	;# 
    80     000A                     	;# 
    81     000B                     	;# 
    82     000C                     	;# 
    83     000D                     	;# 
    84     000E                     	;# 
    85     000E                     	;# 
    86     000F                     	;# 
    87     0010                     	;# 
    88     0011                     	;# 
    89     0012                     	;# 
    90     0013                     	;# 
    91     0014                     	;# 
    92     0015                     	;# 
    93     0015                     	;# 
    94     0016                     	;# 
    95     0017                     	;# 
    96     0018                     	;# 
    97     0019                     	;# 
    98     001A                     	;# 
    99     001B                     	;# 
   100     001B                     	;# 
   101     001C                     	;# 
   102     001D                     	;# 
   103     001E                     	;# 
   104     001F                     	;# 
   105     0081                     	;# 
   106     0085                     	;# 
   107     0086                     	;# 
   108     0087                     	;# 
   109     0088                     	;# 
   110     0089                     	;# 
   111     008C                     	;# 
   112     008D                     	;# 
   113     008E                     	;# 
   114     008F                     	;# 
   115     0090                     	;# 
   116     0091                     	;# 
   117     0092                     	;# 
   118     0093                     	;# 
   119     0093                     	;# 
   120     0093                     	;# 
   121     0094                     	;# 
   122     0095                     	;# 
   123     0096                     	;# 
   124     0097                     	;# 
   125     0098                     	;# 
   126     0099                     	;# 
   127     009A                     	;# 
   128     009B                     	;# 
   129     009C                     	;# 
   130     009D                     	;# 
   131     009E                     	;# 
   132     009F                     	;# 
   133     0105                     	;# 
   134     0107                     	;# 
   135     0108                     	;# 
   136     0109                     	;# 
   137     010C                     	;# 
   138     010C                     	;# 
   139     010D                     	;# 
   140     010E                     	;# 
   141     010F                     	;# 
   142     0185                     	;# 
   143     0187                     	;# 
   144     0188                     	;# 
   145     0189                     	;# 
   146     018C                     	;# 
   147     018D                     	;# 
   148     0000                     	;# 
   149     0001                     	;# 
   150     0002                     	;# 
   151     0003                     	;# 
   152     0004                     	;# 
   153     0005                     	;# 
   154     0006                     	;# 
   155     0007                     	;# 
   156     0008                     	;# 
   157     0009                     	;# 
   158     000A                     	;# 
   159     000B                     	;# 
   160     000C                     	;# 
   161     000D                     	;# 
   162     000E                     	;# 
   163     000E                     	;# 
   164     000F                     	;# 
   165     0010                     	;# 
   166     0011                     	;# 
   167     0012                     	;# 
   168     0013                     	;# 
   169     0014                     	;# 
   170     0015                     	;# 
   171     0015                     	;# 
   172     0016                     	;# 
   173     0017                     	;# 
   174     0018                     	;# 
   175     0019                     	;# 
   176     001A                     	;# 
   177     001B                     	;# 
   178     001B                     	;# 
   179     001C                     	;# 
   180     001D                     	;# 
   181     001E                     	;# 
   182     001F                     	;# 
   183     0081                     	;# 
   184     0085                     	;# 
   185     0086                     	;# 
   186     0087                     	;# 
   187     0088                     	;# 
   188     0089                     	;# 
   189     008C                     	;# 
   190     008D                     	;# 
   191     008E                     	;# 
   192     008F                     	;# 
   193     0090                     	;# 
   194     0091                     	;# 
   195     0092                     	;# 
   196     0093                     	;# 
   197     0093                     	;# 
   198     0093                     	;# 
   199     0094                     	;# 
   200     0095                     	;# 
   201     0096                     	;# 
   202     0097                     	;# 
   203     0098                     	;# 
   204     0099                     	;# 
   205     009A                     	;# 
   206     009B                     	;# 
   207     009C                     	;# 
   208     009D                     	;# 
   209     009E                     	;# 
   210     009F                     	;# 
   211     0105                     	;# 
   212     0107                     	;# 
   213     0108                     	;# 
   214     0109                     	;# 
   215     010C                     	;# 
   216     010C                     	;# 
   217     010D                     	;# 
   218     010E                     	;# 
   219     010F                     	;# 
   220     0185                     	;# 
   221     0187                     	;# 
   222     0188                     	;# 
   223     0189                     	;# 
   224     018C                     	;# 
   225     018D                     	;# 
   226     0000                     	;# 
   227     0001                     	;# 
   228     0002                     	;# 
   229     0003                     	;# 
   230     0004                     	;# 
   231     0005                     	;# 
   232     0006                     	;# 
   233     0007                     	;# 
   234     0008                     	;# 
   235     0009                     	;# 
   236     000A                     	;# 
   237     000B                     	;# 
   238     000C                     	;# 
   239     000D                     	;# 
   240     000E                     	;# 
   241     000E                     	;# 
   242     000F                     	;# 
   243     0010                     	;# 
   244     0011                     	;# 
   245     0012                     	;# 
   246     0013                     	;# 
   247     0014                     	;# 
   248     0015                     	;# 
   249     0015                     	;# 
   250     0016                     	;# 
   251     0017                     	;# 
   252     0018                     	;# 
   253     0019                     	;# 
   254     001A                     	;# 
   255     001B                     	;# 
   256     001B                     	;# 
   257     001C                     	;# 
   258     001D                     	;# 
   259     001E                     	;# 
   260     001F                     	;# 
   261     0081                     	;# 
   262     0085                     	;# 
   263     0086                     	;# 
   264     0087                     	;# 
   265     0088                     	;# 
   266     0089                     	;# 
   267     008C                     	;# 
   268     008D                     	;# 
   269     008E                     	;# 
   270     008F                     	;# 
   271     0090                     	;# 
   272     0091                     	;# 
   273     0092                     	;# 
   274     0093                     	;# 
   275     0093                     	;# 
   276     0093                     	;# 
   277     0094                     	;# 
   278     0095                     	;# 
   279     0096                     	;# 
   280     0097                     	;# 
   281     0098                     	;# 
   282     0099                     	;# 
   283     009A                     	;# 
   284     009B                     	;# 
   285     009C                     	;# 
   286     009D                     	;# 
   287     009E                     	;# 
   288     009F                     	;# 
   289     0105                     	;# 
   290     0107                     	;# 
   291     0108                     	;# 
   292     0109                     	;# 
   293     010C                     	;# 
   294     010C                     	;# 
   295     010D                     	;# 
   296     010E                     	;# 
   297     010F                     	;# 
   298     0185                     	;# 
   299     0187                     	;# 
   300     0188                     	;# 
   301     0189                     	;# 
   302     018C                     	;# 
   303     018D                     	;# 
   304     0000                     	;# 
   305     0001                     	;# 
   306     0002                     	;# 
   307     0003                     	;# 
   308     0004                     	;# 
   309     0005                     	;# 
   310     0006                     	;# 
   311     0007                     	;# 
   312     0008                     	;# 
   313     0009                     	;# 
   314     000A                     	;# 
   315     000B                     	;# 
   316     000C                     	;# 
   317     000D                     	;# 
   318     000E                     	;# 
   319     000E                     	;# 
   320     000F                     	;# 
   321     0010                     	;# 
   322     0011                     	;# 
   323     0012                     	;# 
   324     0013                     	;# 
   325     0014                     	;# 
   326     0015                     	;# 
   327     0015                     	;# 
   328     0016                     	;# 
   329     0017                     	;# 
   330     0018                     	;# 
   331     0019                     	;# 
   332     001A                     	;# 
   333     001B                     	;# 
   334     001B                     	;# 
   335     001C                     	;# 
   336     001D                     	;# 
   337     001E                     	;# 
   338     001F                     	;# 
   339     0081                     	;# 
   340     0085                     	;# 
   341     0086                     	;# 
   342     0087                     	;# 
   343     0088                     	;# 
   344     0089                     	;# 
   345     008C                     	;# 
   346     008D                     	;# 
   347     008E                     	;# 
   348     008F                     	;# 
   349     0090                     	;# 
   350     0091                     	;# 
   351     0092                     	;# 
   352     0093                     	;# 
   353     0093                     	;# 
   354     0093                     	;# 
   355     0094                     	;# 
   356     0095                     	;# 
   357     0096                     	;# 
   358     0097                     	;# 
   359     0098                     	;# 
   360     0099                     	;# 
   361     009A                     	;# 
   362     009B                     	;# 
   363     009C                     	;# 
   364     009D                     	;# 
   365     009E                     	;# 
   366     009F                     	;# 
   367     0105                     	;# 
   368     0107                     	;# 
   369     0108                     	;# 
   370     0109                     	;# 
   371     010C                     	;# 
   372     010C                     	;# 
   373     010D                     	;# 
   374     010E                     	;# 
   375     010F                     	;# 
   376     0185                     	;# 
   377     0187                     	;# 
   378     0188                     	;# 
   379     0189                     	;# 
   380     018C                     	;# 
   381     018D                     	;# 
   382     0000                     	;# 
   383     0001                     	;# 
   384     0002                     	;# 
   385     0003                     	;# 
   386     0004                     	;# 
   387     0005                     	;# 
   388     0006                     	;# 
   389     0007                     	;# 
   390     0008                     	;# 
   391     0009                     	;# 
   392     000A                     	;# 
   393     000B                     	;# 
   394     000C                     	;# 
   395     000D                     	;# 
   396     000E                     	;# 
   397     000E                     	;# 
   398     000F                     	;# 
   399     0010                     	;# 
   400     0011                     	;# 
   401     0012                     	;# 
   402     0013                     	;# 
   403     0014                     	;# 
   404     0015                     	;# 
   405     0015                     	;# 
   406     0016                     	;# 
   407     0017                     	;# 
   408     0018                     	;# 
   409     0019                     	;# 
   410     001A                     	;# 
   411     001B                     	;# 
   412     001B                     	;# 
   413     001C                     	;# 
   414     001D                     	;# 
   415     001E                     	;# 
   416     001F                     	;# 
   417     0081                     	;# 
   418     0085                     	;# 
   419     0086                     	;# 
   420     0087                     	;# 
   421     0088                     	;# 
   422     0089                     	;# 
   423     008C                     	;# 
   424     008D                     	;# 
   425     008E                     	;# 
   426     008F                     	;# 
   427     0090                     	;# 
   428     0091                     	;# 
   429     0092                     	;# 
   430     0093                     	;# 
   431     0093                     	;# 
   432     0093                     	;# 
   433     0094                     	;# 
   434     0095                     	;# 
   435     0096                     	;# 
   436     0097                     	;# 
   437     0098                     	;# 
   438     0099                     	;# 
   439     009A                     	;# 
   440     009B                     	;# 
   441     009C                     	;# 
   442     009D                     	;# 
   443     009E                     	;# 
   444     009F                     	;# 
   445     0105                     	;# 
   446     0107                     	;# 
   447     0108                     	;# 
   448     0109                     	;# 
   449     010C                     	;# 
   450     010C                     	;# 
   451     010D                     	;# 
   452     010E                     	;# 
   453     010F                     	;# 
   454     0185                     	;# 
   455     0187                     	;# 
   456     0188                     	;# 
   457     0189                     	;# 
   458     018C                     	;# 
   459     018D                     	;# 
   460     0000                     	;# 
   461     0001                     	;# 
   462     0002                     	;# 
   463     0003                     	;# 
   464     0004                     	;# 
   465     0005                     	;# 
   466     0006                     	;# 
   467     0007                     	;# 
   468     0008                     	;# 
   469     0009                     	;# 
   470     000A                     	;# 
   471     000B                     	;# 
   472     000C                     	;# 
   473     000D                     	;# 
   474     000E                     	;# 
   475     000E                     	;# 
   476     000F                     	;# 
   477     0010                     	;# 
   478     0011                     	;# 
   479     0012                     	;# 
   480     0013                     	;# 
   481     0014                     	;# 
   482     0015                     	;# 
   483     0015                     	;# 
   484     0016                     	;# 
   485     0017                     	;# 
   486     0018                     	;# 
   487     0019                     	;# 
   488     001A                     	;# 
   489     001B                     	;# 
   490     001B                     	;# 
   491     001C                     	;# 
   492     001D                     	;# 
   493     001E                     	;# 
   494     001F                     	;# 
   495     0081                     	;# 
   496     0085                     	;# 
   497     0086                     	;# 
   498     0087                     	;# 
   499     0088                     	;# 
   500     0089                     	;# 
   501     008C                     	;# 
   502     008D                     	;# 
   503     008E                     	;# 
   504     008F                     	;# 
   505     0090                     	;# 
   506     0091                     	;# 
   507     0092                     	;# 
   508     0093                     	;# 
   509     0093                     	;# 
   510     0093                     	;# 
   511     0094                     	;# 
   512     0095                     	;# 
   513     0096                     	;# 
   514     0097                     	;# 
   515     0098                     	;# 
   516     0099                     	;# 
   517     009A                     	;# 
   518     009B                     	;# 
   519     009C                     	;# 
   520     009D                     	;# 
   521     009E                     	;# 
   522     009F                     	;# 
   523     0105                     	;# 
   524     0107                     	;# 
   525     0108                     	;# 
   526     0109                     	;# 
   527     010C                     	;# 
   528     010C                     	;# 
   529     010D                     	;# 
   530     010E                     	;# 
   531     010F                     	;# 
   532     0185                     	;# 
   533     0187                     	;# 
   534     0188                     	;# 
   535     0189                     	;# 
   536     018C                     	;# 
   537     018D                     	;# 
   538     0000                     	;# 
   539     0001                     	;# 
   540     0002                     	;# 
   541     0003                     	;# 
   542     0004                     	;# 
   543     0005                     	;# 
   544     0006                     	;# 
   545     0007                     	;# 
   546     0008                     	;# 
   547     0009                     	;# 
   548     000A                     	;# 
   549     000B                     	;# 
   550     000C                     	;# 
   551     000D                     	;# 
   552     000E                     	;# 
   553     000E                     	;# 
   554     000F                     	;# 
   555     0010                     	;# 
   556     0011                     	;# 
   557     0012                     	;# 
   558     0013                     	;# 
   559     0014                     	;# 
   560     0015                     	;# 
   561     0015                     	;# 
   562     0016                     	;# 
   563     0017                     	;# 
   564     0018                     	;# 
   565     0019                     	;# 
   566     001A                     	;# 
   567     001B                     	;# 
   568     001B                     	;# 
   569     001C                     	;# 
   570     001D                     	;# 
   571     001E                     	;# 
   572     001F                     	;# 
   573     0081                     	;# 
   574     0085                     	;# 
   575     0086                     	;# 
   576     0087                     	;# 
   577     0088                     	;# 
   578     0089                     	;# 
   579     008C                     	;# 
   580     008D                     	;# 
   581     008E                     	;# 
   582     008F                     	;# 
   583     0090                     	;# 
   584     0091                     	;# 
   585     0092                     	;# 
   586     0093                     	;# 
   587     0093                     	;# 
   588     0093                     	;# 
   589     0094                     	;# 
   590     0095                     	;# 
   591     0096                     	;# 
   592     0097                     	;# 
   593     0098                     	;# 
   594     0099                     	;# 
   595     009A                     	;# 
   596     009B                     	;# 
   597     009C                     	;# 
   598     009D                     	;# 
   599     009E                     	;# 
   600     009F                     	;# 
   601     0105                     	;# 
   602     0107                     	;# 
   603     0108                     	;# 
   604     0109                     	;# 
   605     010C                     	;# 
   606     010C                     	;# 
   607     010D                     	;# 
   608     010E                     	;# 
   609     010F                     	;# 
   610     0185                     	;# 
   611     0187                     	;# 
   612     0188                     	;# 
   613     0189                     	;# 
   614     018C                     	;# 
   615     018D                     	;# 
   616                           
   617                           	psect	strings
   618     0003                     __pstrings:
   619     0003                     stringtab:
   620     0003                     __stringtab:
   621     0003                     stringcode:	
   622                           ;	String table - string pointers are 1 byte each
   623                           
   624     0003                     stringdir:
   625     0003  3000               	movlw	high stringdir
   626     0004  008A               	movwf	10
   627     0005  0804               	movf	4,w
   628     0006  0A84               	incf	4,f
   629     0007  0782               	addwf	2,f
   630     0008                     __stringbase:
   631     0008  3400               	retlw	0
   632     0009                     __end_of__stringtab:
   633     0009                     _dpowers:
   634     0009  3401               	retlw	1
   635     000A  3400               	retlw	0
   636     000B  340A               	retlw	10
   637     000C  3400               	retlw	0
   638     000D  3464               	retlw	100
   639     000E  3400               	retlw	0
   640     000F  34E8               	retlw	232
   641     0010  3403               	retlw	3
   642     0011  3410               	retlw	16
   643     0012  3427               	retlw	39
   644     0013                     __end_of_dpowers:
   645     000E                     _TMR1	set	14
   646     0006                     _PORTBbits	set	6
   647     0012                     _T2CONbits	set	18
   648     000C                     _PIR1bits	set	12
   649     001B                     _CCPR2L	set	27
   650     0015                     _CCPR1L	set	21
   651     001D                     _CCP2CONbits	set	29
   652     0017                     _CCP1CONbits	set	23
   653     0005                     _PORTAbits	set	5
   654     0010                     _T1CONbits	set	16
   655     0008                     _PORTD	set	8
   656     0006                     _PORTB	set	6
   657     0005                     _PORTA	set	5
   658     0008                     _PORTDbits	set	8
   659     0013                     _SSPBUF	set	19
   660     0014                     _SSPCON	set	20
   661     0063                     _SSPIF	set	99
   662     005E                     _PEIE	set	94
   663     005F                     _GIE	set	95
   664     0092                     _PR2	set	146
   665     0096                     _IOCB	set	150
   666     0095                     _WPUBbits	set	149
   667     0081                     _OPTION_REGbits	set	129
   668     0085                     _TRISAbits	set	133
   669     0088                     _TRISD	set	136
   670     0086                     _TRISB	set	134
   671     0085                     _TRISA	set	133
   672     008F                     _OSCCONbits	set	143
   673     0091                     _SSPCON2bits	set	145
   674     0087                     _TRISCbits	set	135
   675     0094                     _SSPSTAT	set	148
   676     0093                     _SSPADD	set	147
   677     0091                     _SSPCON2	set	145
   678     0463                     _SSPIE	set	1123
   679     043C                     _TRISC4	set	1084
   680     043B                     _TRISC3	set	1083
   681     0189                     _ANSELH	set	393
   682     0188                     _ANSEL	set	392
   683     0013                     STR_1:
   684     0013  3444               	retlw	68	;'D'
   685     0014  3469               	retlw	105	;'i'
   686     0015  3473               	retlw	115	;'s'
   687     0016  3474               	retlw	116	;'t'
   688     0017  3461               	retlw	97	;'a'
   689     0018  346E               	retlw	110	;'n'
   690     0019  3463               	retlw	99	;'c'
   691     001A  3469               	retlw	105	;'i'
   692     001B  3461               	retlw	97	;'a'
   693     001C  343A               	retlw	58	;':'
   694     001D  3420               	retlw	32	;' '
   695     001E  3425               	retlw	37	;'%'
   696     001F  3464               	retlw	100	;'d'
   697     0020  3420               	retlw	32	;' '
   698     0021  3463               	retlw	99	;'c'
   699     0022  346D               	retlw	109	;'m'
   700     0023  3400               	retlw	0
   701                           
   702                           	psect	cinit
   703     07F3                     start_initialization:	
   704                           ; #config settings
   705                           
   706     07F3                     __initialization:
   707                           
   708                           ; Clear objects allocated to BANK0
   709     07F3  1383               	bcf	3,7	;select IRP bank0
   710     07F4  3020               	movlw	low __pbssBANK0
   711     07F5  0084               	movwf	4
   712     07F6  3036               	movlw	low (__pbssBANK0+22)
   713     07F7  120A  118A  22F5  120A  118A  	fcall	clear_ram0
   714     07FC                     end_of_initialization:	
   715                           ;End of C runtime variable initialization code
   716                           
   717     07FC                     __end_of__initialization:
   718     07FC  0183               	clrf	3
   719     07FD  120A  118A  2DE7   	ljmp	_main	;jump to C main() function
   720                           
   721                           	psect	bssBANK0
   722     0020                     __pbssBANK0:
   723     0020                     _distancia:
   724     0020                     	ds	4
   725     0024                     _velocidad:
   726     0024                     	ds	2
   727     0026                     _distanciaLCD:
   728     0026                     	ds	16
   729                           
   730                           	psect	clrtext
   731     02F5                     clear_ram0:	
   732                           ;	Called with FSR containing the base address, and
   733                           ;	W with the last address+1
   734                           
   735     02F5  0064               	clrwdt	;clear the watchdog before getting into this loop
   736     02F6                     clrloop0:
   737     02F6  0180               	clrf	0	;clear RAM location pointed to by FSR
   738     02F7  0A84               	incf	4,f	;increment pointer
   739     02F8  0604               	xorwf	4,w	;XOR with final address
   740     02F9  1903               	btfsc	3,2	;have we reached the end yet?
   741     02FA  3400               	retlw	0	;all done for this memory range, return
   742     02FB  0604               	xorwf	4,w	;XOR again to restore value
   743     02FC  2AF6               	goto	clrloop0	;do the next byte
   744                           
   745                           	psect	cstackCOMMON
   746     0070                     __pcstackCOMMON:
   747     0070                     ?_setup:
   748     0070                     ?_I2C_Master_Wait:	
   749                           ; 1 bytes @ 0x0
   750                           
   751     0070                     ??_I2C_Master_Wait:	
   752                           ; 1 bytes @ 0x0
   753                           
   754     0070                     ?_I2C_Master_Start:	
   755                           ; 1 bytes @ 0x0
   756                           
   757     0070                     ??_I2C_Master_Start:	
   758                           ; 1 bytes @ 0x0
   759                           
   760     0070                     ?_I2C_Master_Stop:	
   761                           ; 1 bytes @ 0x0
   762                           
   763     0070                     ??_I2C_Master_Stop:	
   764                           ; 1 bytes @ 0x0
   765                           
   766     0070                     ?_I2C_Master_Write:	
   767                           ; 1 bytes @ 0x0
   768                           
   769     0070                     ?_setupINTOSC:	
   770                           ; 1 bytes @ 0x0
   771                           
   772     0070                     ??_setupINTOSC:	
   773                           ; 1 bytes @ 0x0
   774                           
   775     0070                     ?_Lcd_Port_4bits:	
   776                           ; 1 bytes @ 0x0
   777                           
   778     0070                     ??_Lcd_Port_4bits:	
   779                           ; 1 bytes @ 0x0
   780                           
   781     0070                     ?_Lcd_Cmd_4bits:	
   782                           ; 1 bytes @ 0x0
   783                           
   784     0070                     ?_Lcd_Clear_4bits:	
   785                           ; 1 bytes @ 0x0
   786                           
   787     0070                     ?_Lcd_Init_4bits:	
   788                           ; 1 bytes @ 0x0
   789                           
   790     0070                     ?_Lcd_Write_Char_4bits:	
   791                           ; 1 bytes @ 0x0
   792                           
   793     0070                     ?_Lcd_Write_String_4bits:	
   794                           ; 1 bytes @ 0x0
   795                           
   796     0070                     ?_main:	
   797                           ; 1 bytes @ 0x0
   798                           
   799     0070                     ?_I2C_Master_Read:	
   800                           ; 1 bytes @ 0x0
   801                           
   802     0070                     ?___lwdiv:	
   803                           ; 2 bytes @ 0x0
   804                           
   805     0070                     ?___lldiv:	
   806                           ; 2 bytes @ 0x0
   807                           
   808     0070                     Lcd_Port_4bits@a:	
   809                           ; 4 bytes @ 0x0
   810                           
   811     0070                     I2C_Master_Write@d:	
   812                           ; 1 bytes @ 0x0
   813                           
   814     0070                     I2C_Master_Read@a:	
   815                           ; 2 bytes @ 0x0
   816                           
   817     0070                     ___lwdiv@divisor:	
   818                           ; 2 bytes @ 0x0
   819                           
   820     0070                     ___lldiv@divisor:	
   821                           ; 2 bytes @ 0x0
   822                           
   823                           
   824                           ; 4 bytes @ 0x0
   825     0070                     	ds	1
   826     0071                     ??_Lcd_Cmd_4bits:
   827     0071                     ??_Lcd_Write_Char_4bits:	
   828                           ; 1 bytes @ 0x1
   829                           
   830     0071                     setupINTOSC@F:	
   831                           ; 1 bytes @ 0x1
   832                           
   833                           
   834                           ; 1 bytes @ 0x1
   835     0071                     	ds	1
   836     0072                     ??_I2C_Master_Write:
   837     0072                     ??_I2C_Master_Read:	
   838                           ; 1 bytes @ 0x2
   839                           
   840     0072                     Lcd_Write_Char_4bits@temp:	
   841                           ; 1 bytes @ 0x2
   842                           
   843     0072                     ___lwdiv@dividend:	
   844                           ; 1 bytes @ 0x2
   845                           
   846                           
   847                           ; 2 bytes @ 0x2
   848     0072                     	ds	1
   849     0073                     Lcd_Cmd_4bits@a:
   850     0073                     Lcd_Write_Char_4bits@y:	
   851                           ; 1 bytes @ 0x3
   852                           
   853                           
   854                           ; 1 bytes @ 0x3
   855     0073                     	ds	1
   856     0074                     ??_Lcd_Clear_4bits:
   857     0074                     ?_Lcd_Set_Cursor_4bits:	
   858                           ; 1 bytes @ 0x4
   859                           
   860     0074                     ??_Lcd_Init_4bits:	
   861                           ; 1 bytes @ 0x4
   862                           
   863     0074                     ??___lwdiv:	
   864                           ; 1 bytes @ 0x4
   865                           
   866     0074                     Lcd_Set_Cursor_4bits@b:	
   867                           ; 1 bytes @ 0x4
   868                           
   869     0074                     Lcd_Write_Char_4bits@a:	
   870                           ; 1 bytes @ 0x4
   871                           
   872     0074                     I2C_Master_Read@temp:	
   873                           ; 1 bytes @ 0x4
   874                           
   875     0074                     ___lldiv@dividend:	
   876                           ; 2 bytes @ 0x4
   877                           
   878                           
   879                           ; 4 bytes @ 0x4
   880     0074                     	ds	1
   881     0075                     ??_Lcd_Set_Cursor_4bits:
   882     0075                     ??_Lcd_Write_String_4bits:	
   883                           ; 1 bytes @ 0x5
   884                           
   885     0075                     ___lwdiv@quotient:	
   886                           ; 1 bytes @ 0x5
   887                           
   888                           
   889                           ; 2 bytes @ 0x5
   890     0075                     	ds	1
   891     0076                     ?___xxtofl:
   892     0076                     Lcd_Set_Cursor_4bits@a:	
   893                           ; 4 bytes @ 0x6
   894                           
   895     0076                     Lcd_Write_String_4bits@i:	
   896                           ; 1 bytes @ 0x6
   897                           
   898     0076                     ___xxtofl@val:	
   899                           ; 2 bytes @ 0x6
   900                           
   901                           
   902                           ; 4 bytes @ 0x6
   903     0076                     	ds	1
   904     0077                     Lcd_Set_Cursor_4bits@z:
   905     0077                     ___lwdiv@counter:	
   906                           ; 1 bytes @ 0x7
   907                           
   908                           
   909                           ; 1 bytes @ 0x7
   910     0077                     	ds	1
   911     0078                     ??___lldiv:
   912     0078                     ?___lwmod:	
   913                           ; 1 bytes @ 0x8
   914                           
   915     0078                     Lcd_Set_Cursor_4bits@y:	
   916                           ; 2 bytes @ 0x8
   917                           
   918     0078                     Lcd_Write_String_4bits@a:	
   919                           ; 1 bytes @ 0x8
   920                           
   921     0078                     ___lwmod@divisor:	
   922                           ; 1 bytes @ 0x8
   923                           
   924                           
   925                           ; 2 bytes @ 0x8
   926     0078                     	ds	1
   927     0079                     Lcd_Set_Cursor_4bits@temp:
   928     0079                     ___lldiv@quotient:	
   929                           ; 1 bytes @ 0x9
   930                           
   931                           
   932                           ; 4 bytes @ 0x9
   933     0079                     	ds	1
   934     007A                     ??___xxtofl:
   935     007A                     ___lwmod@dividend:	
   936                           ; 1 bytes @ 0xA
   937                           
   938                           
   939                           ; 2 bytes @ 0xA
   940     007A                     	ds	2
   941     007C                     ??___lwmod:
   942                           
   943                           ; 1 bytes @ 0xC
   944     007C                     	ds	1
   945     007D                     ___lldiv@counter:
   946     007D                     ___lwmod@counter:	
   947                           ; 1 bytes @ 0xD
   948                           
   949                           
   950                           ; 1 bytes @ 0xD
   951     007D                     	ds	1
   952     007E                     ??_setup:
   953                           
   954                           	psect	cstackBANK0
   955     0036                     __pcstackBANK0:	
   956                           ; 1 bytes @ 0xE
   957                           
   958     0036                     ?_I2C_Master_Init:
   959     0036                     ?_sprintf:	
   960                           ; 1 bytes @ 0x0
   961                           
   962     0036                     sprintf@f:	
   963                           ; 2 bytes @ 0x0
   964                           
   965     0036                     ___xxtofl@sign:	
   966                           ; 1 bytes @ 0x0
   967                           
   968     0036                     I2C_Master_Init@c:	
   969                           ; 1 bytes @ 0x0
   970                           
   971                           
   972                           ; 4 bytes @ 0x0
   973     0036                     	ds	1
   974     0037                     ___xxtofl@exp:
   975                           
   976                           ; 1 bytes @ 0x1
   977     0037                     	ds	1
   978     0038                     ___xxtofl@arg:
   979                           
   980                           ; 4 bytes @ 0x2
   981     0038                     	ds	2
   982     003A                     ??_I2C_Master_Init:
   983                           
   984                           ; 1 bytes @ 0x4
   985     003A                     	ds	1
   986     003B                     ??_sprintf:
   987                           
   988                           ; 1 bytes @ 0x5
   989     003B                     	ds	3
   990     003E                     sprintf@ap:
   991                           
   992                           ; 1 bytes @ 0x8
   993     003E                     	ds	1
   994     003F                     sprintf@flag:
   995                           
   996                           ; 1 bytes @ 0x9
   997     003F                     	ds	1
   998     0040                     sprintf@prec:
   999                           
  1000                           ; 1 bytes @ 0xA
  1001     0040                     	ds	1
  1002     0041                     sprintf@val:
  1003                           
  1004                           ; 2 bytes @ 0xB
  1005     0041                     	ds	2
  1006     0043                     sprintf@sp:
  1007                           
  1008                           ; 1 bytes @ 0xD
  1009     0043                     	ds	1
  1010     0044                     sprintf@c:
  1011                           
  1012                           ; 1 bytes @ 0xE
  1013     0044                     	ds	1
  1014     0045                     ??_main:
  1015                           
  1016                           ; 1 bytes @ 0xF
  1017     0045                     	ds	4
  1018                           
  1019                           	psect	maintext
  1020     05E7                     __pmaintext:	
  1021 ;;
  1022 ;;Main: autosize = 0, tempsize = 4, incstack = 0, save=0
  1023 ;;
  1024 ;; *************** function _main *****************
  1025 ;; Defined at:
  1026 ;;		line 66 in file "main_M.c"
  1027 ;; Parameters:    Size  Location     Type
  1028 ;;		None
  1029 ;; Auto vars:     Size  Location     Type
  1030 ;;		None
  1031 ;; Return value:  Size  Location     Type
  1032 ;;                  1    wreg      void 
  1033 ;; Registers used:
  1034 ;;		wreg, fsr0l, fsr0h, status,2, status,0, btemp+1, pclath, cstack
  1035 ;; Tracked objects:
  1036 ;;		On entry : B00/0
  1037 ;;		On exit  : 0/0
  1038 ;;		Unchanged: 0/0
  1039 ;; Data sizes:     COMMON   BANK0   BANK1   BANK3   BANK2
  1040 ;;      Params:         0       0       0       0       0
  1041 ;;      Locals:         0       0       0       0       0
  1042 ;;      Temps:          0       4       0       0       0
  1043 ;;      Totals:         0       4       0       0       0
  1044 ;;Total ram usage:        4 bytes
  1045 ;; Hardware stack levels required when called: 4
  1046 ;; This function calls:
  1047 ;;		_I2C_Master_Read
  1048 ;;		_I2C_Master_Start
  1049 ;;		_I2C_Master_Stop
  1050 ;;		_I2C_Master_Write
  1051 ;;		_Lcd_Clear_4bits
  1052 ;;		_Lcd_Set_Cursor_4bits
  1053 ;;		_Lcd_Write_String_4bits
  1054 ;;		___xxtofl
  1055 ;;		_setup
  1056 ;;		_sprintf
  1057 ;; This function is called by:
  1058 ;;		Startup code after reset
  1059 ;; This function uses a non-reentrant model
  1060 ;;
  1061                           
  1062     05E7                     _main:	
  1063                           ;psect for function _main
  1064                           
  1065     05E7                     l1677:	
  1066                           ;incstack = 0
  1067                           ; Regs used in _main: [wreg-fsr0h+status,2+status,0+btemp+1+pclath+cstack]
  1068                           
  1069                           
  1070                           ;main_M.c: 68:     setup();
  1071     05E7  120A  118A  239D  120A  118A  	fcall	_setup
  1072                           
  1073                           ;main_M.c: 69:     Lcd_Clear_4bits();
  1074     05EC  120A  118A  2326  120A  118A  	fcall	_Lcd_Clear_4bits
  1075     05F1                     l156:	
  1076                           ;main_M.c: 74:     while(1)
  1077                           
  1078                           
  1079                           ;main_M.c: 75:     {;main_M.c: 77:         I2C_Master_Start();
  1080     05F1  120A  118A  22FD  120A  118A  	fcall	_I2C_Master_Start
  1081                           
  1082                           ;main_M.c: 78:         I2C_Master_Write(0x11);
  1083     05F6  3011               	movlw	17
  1084     05F7  00F0               	movwf	I2C_Master_Write@d
  1085     05F8  3000               	movlw	0
  1086     05F9  00F1               	movwf	I2C_Master_Write@d+1
  1087     05FA  120A  118A  230F  120A  118A  	fcall	_I2C_Master_Write
  1088                           
  1089                           ;main_M.c: 79:         distancia = I2C_Master_Read(0);
  1090     05FF  3000               	movlw	0
  1091     0600  00F0               	movwf	I2C_Master_Read@a
  1092     0601  00F1               	movwf	I2C_Master_Read@a+1
  1093     0602  120A  118A  23C5  120A  118A  	fcall	_I2C_Master_Read
  1094     0607  0870               	movf	?_I2C_Master_Read,w
  1095     0608  1283               	bcf	3,5	;RP0=0, select bank0
  1096     0609  1303               	bcf	3,6	;RP1=0, select bank0
  1097     060A  00C5               	movwf	??_main
  1098     060B  0871               	movf	?_I2C_Master_Read+1,w
  1099     060C  00C6               	movwf	??_main+1
  1100     060D  01C7               	clrf	??_main+2
  1101     060E  01C8               	clrf	??_main+3
  1102     060F  0848               	movf	??_main+3,w
  1103     0610  00F9               	movwf	___xxtofl@val+3
  1104     0611  0847               	movf	??_main+2,w
  1105     0612  00F8               	movwf	___xxtofl@val+2
  1106     0613  0846               	movf	??_main+1,w
  1107     0614  00F7               	movwf	___xxtofl@val+1
  1108     0615  0845               	movf	??_main,w
  1109     0616  00F6               	movwf	___xxtofl@val
  1110     0617  3000               	movlw	0
  1111     0618  120A  118A  265F  120A  118A  	fcall	___xxtofl
  1112     061D  0879               	movf	?___xxtofl+3,w
  1113     061E  1283               	bcf	3,5	;RP0=0, select bank0
  1114     061F  1303               	bcf	3,6	;RP1=0, select bank0
  1115     0620  00A3               	movwf	_distancia+3
  1116     0621  0878               	movf	?___xxtofl+2,w
  1117     0622  00A2               	movwf	_distancia+2
  1118     0623  0877               	movf	?___xxtofl+1,w
  1119     0624  00A1               	movwf	_distancia+1
  1120     0625  0876               	movf	?___xxtofl,w
  1121     0626  00A0               	movwf	_distancia
  1122                           
  1123                           ;main_M.c: 80:         I2C_Master_Stop();
  1124     0627  120A  118A  2306  120A  118A  	fcall	_I2C_Master_Stop
  1125     062C                     l1679:
  1126                           
  1127                           ;main_M.c: 81:         _delay((unsigned long)((200)*(8000000/4000.0)));
  1128     062C  3003               	movlw	3
  1129     062D  1283               	bcf	3,5	;RP0=0, select bank0
  1130     062E  1303               	bcf	3,6	;RP1=0, select bank0
  1131     062F  00C7               	movwf	??_main+2
  1132     0630  3008               	movlw	8
  1133     0631  00C6               	movwf	??_main+1
  1134     0632  3076               	movlw	118
  1135     0633  00C5               	movwf	??_main
  1136     0634                     u1217:
  1137     0634  0BC5               	decfsz	??_main,f
  1138     0635  2E34               	goto	u1217
  1139     0636  0BC6               	decfsz	??_main+1,f
  1140     0637  2E34               	goto	u1217
  1141     0638  0BC7               	decfsz	??_main+2,f
  1142     0639  2E34               	goto	u1217
  1143     063A  0000               	nop
  1144     063B                     l1681:
  1145                           
  1146                           ;main_M.c: 84:         sprintf(distanciaLCD, "Distancia: %d cm", distancia);
  1147     063B  300B               	movlw	(low ((STR_1-__stringbase)| (0+32768)))& (0+255)
  1148     063C  1283               	bcf	3,5	;RP0=0, select bank0
  1149     063D  1303               	bcf	3,6	;RP1=0, select bank0
  1150     063E  00B6               	movwf	sprintf@f
  1151     063F  0823               	movf	_distancia+3,w
  1152     0640  00BA               	movwf	?_sprintf+4
  1153     0641  0822               	movf	_distancia+2,w
  1154     0642  00B9               	movwf	?_sprintf+3
  1155     0643  0821               	movf	_distancia+1,w
  1156     0644  00B8               	movwf	?_sprintf+2
  1157     0645  0820               	movf	_distancia,w
  1158     0646  00B7               	movwf	?_sprintf+1
  1159     0647  3026               	movlw	(low (_distanciaLCD| 0))& (0+255)
  1160     0648  120A  118A  2719  120A  118A  	fcall	_sprintf
  1161     064D                     l1683:
  1162                           
  1163                           ;main_M.c: 86:         Lcd_Set_Cursor_4bits(1,1);
  1164     064D  01F4               	clrf	Lcd_Set_Cursor_4bits@b
  1165     064E  0AF4               	incf	Lcd_Set_Cursor_4bits@b,f
  1166     064F  3001               	movlw	1
  1167     0650  120A  118A  24DE  120A  118A  	fcall	_Lcd_Set_Cursor_4bits
  1168     0655                     l1685:
  1169                           
  1170                           ;main_M.c: 87:         Lcd_Write_String_4bits(distanciaLCD);
  1171     0655  3026               	movlw	(low (_distanciaLCD| 0))& (0+255)
  1172     0656  120A  118A  235A  120A  118A  	fcall	_Lcd_Write_String_4bits
  1173     065B  2DF1               	goto	l156
  1174     065C  120A  118A  2800   	ljmp	start
  1175     065F                     __end_of_main:
  1176                           
  1177                           	psect	text1
  1178     0719                     __ptext1:	
  1179 ;; *************** function _sprintf *****************
  1180 ;; Defined at:
  1181 ;;		line 505 in file "C:\Program Files\Microchip\xc8\v2.40\pic\sources\c90\common\doprnt.c"
  1182 ;; Parameters:    Size  Location     Type
  1183 ;;  sp              1    wreg     PTR unsigned char 
  1184 ;;		 -> distanciaLCD(16), 
  1185 ;;  f               1    0[BANK0 ] PTR const unsigned char 
  1186 ;;		 -> STR_1(17), 
  1187 ;; Auto vars:     Size  Location     Type
  1188 ;;  sp              1   13[BANK0 ] PTR unsigned char 
  1189 ;;		 -> distanciaLCD(16), 
  1190 ;;  tmpval          4    0        struct .
  1191 ;;  val             2   11[BANK0 ] unsigned int 
  1192 ;;  cp              2    0        PTR const unsigned char 
  1193 ;;  len             2    0        unsigned int 
  1194 ;;  c               1   14[BANK0 ] unsigned char 
  1195 ;;  prec            1   10[BANK0 ] char 
  1196 ;;  flag            1    9[BANK0 ] unsigned char 
  1197 ;;  ap              1    8[BANK0 ] PTR void [1]
  1198 ;;		 -> ?_sprintf(2), 
  1199 ;; Return value:  Size  Location     Type
  1200 ;;                  2    0[BANK0 ] int 
  1201 ;; Registers used:
  1202 ;;		wreg, fsr0l, fsr0h, status,2, status,0, btemp+1, pclath, cstack
  1203 ;; Tracked objects:
  1204 ;;		On entry : 0/0
  1205 ;;		On exit  : 0/0
  1206 ;;		Unchanged: 0/0
  1207 ;; Data sizes:     COMMON   BANK0   BANK1   BANK3   BANK2
  1208 ;;      Params:         0       5       0       0       0
  1209 ;;      Locals:         0       7       0       0       0
  1210 ;;      Temps:          0       3       0       0       0
  1211 ;;      Totals:         0      15       0       0       0
  1212 ;;Total ram usage:       15 bytes
  1213 ;; Hardware stack levels used: 1
  1214 ;; Hardware stack levels required when called: 1
  1215 ;; This function calls:
  1216 ;;		___lwdiv
  1217 ;;		___lwmod
  1218 ;; This function is called by:
  1219 ;;		_main
  1220 ;; This function uses a non-reentrant model
  1221 ;;
  1222                           
  1223     0719                     _sprintf:	
  1224                           ;psect for function _sprintf
  1225                           
  1226                           
  1227                           ;incstack = 0
  1228                           ; Regs used in _sprintf: [wreg-fsr0h+status,2+status,0+btemp+1+pclath+cstack]
  1229                           ;sprintf@sp stored from wreg
  1230     0719  1283               	bcf	3,5	;RP0=0, select bank0
  1231     071A  1303               	bcf	3,6	;RP1=0, select bank0
  1232     071B  00C3               	movwf	sprintf@sp
  1233     071C                     l1563:
  1234                           
  1235                           ;C:\Program Files\Microchip\xc8\v2.40\pic\sources\c90\common\doprnt.c: 505: sprintf(char
      +                           * sp, const char * f, ...);C:\Program Files\Microchip\xc8\v2.40\pic\sources\c90\common\
      +                          doprnt.c: 506: {;C:\Program Files\Microchip\xc8\v2.40\pic\sources\c90\common\doprnt.c: 5
      +                          07:  va_list ap;;C:\Program Files\Microchip\xc8\v2.40\pic\sources\c90\common\doprnt.c: 5
      +                          12:  char c;;C:\Program Files\Microchip\xc8\v2.40\pic\sources\c90\common\doprnt.c: 521: 
      +                           signed char prec;;C:\Program Files\Microchip\xc8\v2.40\pic\sources\c90\common\doprnt.c:
      +                           525:  unsigned char flag;
  1236     071C  3037               	movlw	(low ((?_sprintf| 0+1)))& (0+255)
  1237     071D  00BE               	movwf	sprintf@ap
  1238                           
  1239                           ;C:\Program Files\Microchip\xc8\v2.40\pic\sources\c90\common\doprnt.c: 553:  while((c = 
      +                          *f++)) {
  1240     071E  2FDE               	goto	l1615
  1241     071F                     l1565:
  1242                           
  1243                           ;C:\Program Files\Microchip\xc8\v2.40\pic\sources\c90\common\doprnt.c: 555:   if(c != '%
      +                          ')
  1244     071F  3025               	movlw	37
  1245     0720  0644               	xorwf	sprintf@c,w
  1246     0721  1903               	btfsc	3,2
  1247     0722  2F24               	goto	u981
  1248     0723  2F25               	goto	u980
  1249     0724                     u981:
  1250     0724  2F2F               	goto	l1571
  1251     0725                     u980:
  1252     0725                     l1567:
  1253                           
  1254                           ;C:\Program Files\Microchip\xc8\v2.40\pic\sources\c90\common\doprnt.c: 557:   {;C:\Progr
      +                          am Files\Microchip\xc8\v2.40\pic\sources\c90\common\doprnt.c: 558:    ((*sp++ = (c)));
  1255     0725  0843               	movf	sprintf@sp,w
  1256     0726  0084               	movwf	4
  1257     0727  0844               	movf	sprintf@c,w
  1258     0728  1383               	bcf	3,7	;select IRP bank0
  1259     0729  0080               	movwf	0
  1260     072A                     l1569:
  1261     072A  3001               	movlw	1
  1262     072B  00BB               	movwf	??_sprintf
  1263     072C  083B               	movf	??_sprintf,w
  1264     072D  07C3               	addwf	sprintf@sp,f
  1265                           
  1266                           ;C:\Program Files\Microchip\xc8\v2.40\pic\sources\c90\common\doprnt.c: 559:    continue;
  1267     072E  2FDE               	goto	l1615
  1268     072F                     l1571:
  1269                           
  1270                           ;C:\Program Files\Microchip\xc8\v2.40\pic\sources\c90\common\doprnt.c: 565:   flag = 0;
  1271     072F  01BF               	clrf	sprintf@flag
  1272     0730                     l1575:	
  1273                           ;C:\Program Files\Microchip\xc8\v2.40\pic\sources\c90\common\doprnt.c: 661:   switch(c =
      +                           *f++) {
  1274                           
  1275     0730  3001               	movlw	1
  1276     0731  07B6               	addwf	sprintf@f,f
  1277     0732  30FF               	movlw	-1
  1278     0733  0736               	addwf	sprintf@f,w
  1279     0734  0084               	movwf	4
  1280     0735  120A  118A  2003  120A  118A  	fcall	stringdir
  1281     073A  00C4               	movwf	sprintf@c
  1282     073B  00BB               	movwf	??_sprintf
  1283     073C  01BC               	clrf	??_sprintf+1
  1284                           
  1285                           ; Switch on 2 bytes has been partitioned into a top level switch of size 1, and 1 sub-sw
      +                          itches
  1286                           ; Switch size 1, requested type "simple"
  1287                           ; Number of cases is 1, Range of values is 0 to 0
  1288                           ; switch strategies available:
  1289                           ; Name         Instructions Cycles
  1290                           ; simple_byte            4     3 (average)
  1291                           ; direct_byte           11     8 (fixed)
  1292                           ; jumptable            260     6 (fixed)
  1293                           ;	Chosen strategy is simple_byte
  1294     073D  083C               	movf	??_sprintf+1,w
  1295     073E  3A00               	xorlw	0	; case 0
  1296     073F  1903               	skipnz
  1297     0740  2F42               	goto	l1727
  1298     0741  2FDE               	goto	l1615
  1299     0742                     l1727:
  1300                           
  1301                           ; Switch size 1, requested type "simple"
  1302                           ; Number of cases is 3, Range of values is 0 to 105
  1303                           ; switch strategies available:
  1304                           ; Name         Instructions Cycles
  1305                           ; simple_byte           10     6 (average)
  1306                           ; jumptable            260     6 (fixed)
  1307                           ;	Chosen strategy is simple_byte
  1308     0742  083B               	movf	??_sprintf,w
  1309     0743  3A00               	xorlw	0	; case 0
  1310     0744  1903               	skipnz
  1311     0745  2FEE               	goto	l1617
  1312     0746  3A64               	xorlw	100	; case 100
  1313     0747  1903               	skipnz
  1314     0748  2F4D               	goto	l1577
  1315     0749  3A0D               	xorlw	13	; case 105
  1316     074A  1903               	skipnz
  1317     074B  2F4D               	goto	l1577
  1318     074C  2FDE               	goto	l1615
  1319     074D                     l1577:
  1320                           
  1321                           ;C:\Program Files\Microchip\xc8\v2.40\pic\sources\c90\common\doprnt.c: 1279:   {;C:\Prog
      +                          ram Files\Microchip\xc8\v2.40\pic\sources\c90\common\doprnt.c: 1285:     val = (unsigned
      +                           int)(*(int *)__va_arg((*(int **)ap), (int)0));
  1322     074D  083E               	movf	sprintf@ap,w
  1323     074E  0084               	movwf	4
  1324     074F  1383               	bcf	3,7	;select IRP bank0
  1325     0750  0800               	movf	0,w
  1326     0751  00C1               	movwf	sprintf@val
  1327     0752  0A84               	incf	4,f
  1328     0753  0800               	movf	0,w
  1329     0754  00C2               	movwf	sprintf@val+1
  1330     0755                     l1579:
  1331     0755  3002               	movlw	2
  1332     0756  00BB               	movwf	??_sprintf
  1333     0757  083B               	movf	??_sprintf,w
  1334     0758  07BE               	addwf	sprintf@ap,f
  1335     0759                     l1581:
  1336                           
  1337                           ;C:\Program Files\Microchip\xc8\v2.40\pic\sources\c90\common\doprnt.c: 1287:    if((int)
      +                          val < 0) {
  1338     0759  1FC2               	btfss	sprintf@val+1,7
  1339     075A  2F5C               	goto	u991
  1340     075B  2F5D               	goto	u990
  1341     075C                     u991:
  1342     075C  2F66               	goto	l1587
  1343     075D                     u990:
  1344     075D                     l1583:
  1345                           
  1346                           ;C:\Program Files\Microchip\xc8\v2.40\pic\sources\c90\common\doprnt.c: 1288:     flag |=
      +                           0x03;
  1347     075D  3003               	movlw	3
  1348     075E  00BB               	movwf	??_sprintf
  1349     075F  083B               	movf	??_sprintf,w
  1350     0760  04BF               	iorwf	sprintf@flag,f
  1351     0761                     l1585:
  1352                           
  1353                           ;C:\Program Files\Microchip\xc8\v2.40\pic\sources\c90\common\doprnt.c: 1289:     val = -
      +                          val;
  1354     0761  09C1               	comf	sprintf@val,f
  1355     0762  09C2               	comf	sprintf@val+1,f
  1356     0763  0AC1               	incf	sprintf@val,f
  1357     0764  1903               	skipnz
  1358     0765  0AC2               	incf	sprintf@val+1,f
  1359     0766                     l1587:
  1360                           
  1361                           ;C:\Program Files\Microchip\xc8\v2.40\pic\sources\c90\common\doprnt.c: 1292:   };C:\Prog
      +                          ram Files\Microchip\xc8\v2.40\pic\sources\c90\common\doprnt.c: 1331:    for(c = 1 ; c !=
      +                           sizeof dpowers/sizeof dpowers[0] ; c++)
  1362     0766  01C4               	clrf	sprintf@c
  1363     0767  0AC4               	incf	sprintf@c,f
  1364     0768                     l1593:
  1365                           
  1366                           ;C:\Program Files\Microchip\xc8\v2.40\pic\sources\c90\common\doprnt.c: 1332:     if(val 
      +                          < dpowers[c])
  1367     0768  0844               	movf	sprintf@c,w
  1368     0769  00BB               	movwf	??_sprintf
  1369     076A  073B               	addwf	??_sprintf,w
  1370     076B  3E01               	addlw	low ((_dpowers-__stringbase)| (0+32768))
  1371     076C  0084               	movwf	4
  1372     076D  120A  118A  2003  120A  118A  	fcall	stringdir
  1373     0772  00BC               	movwf	??_sprintf+1
  1374     0773  120A  118A  2003  120A  118A  	fcall	stringdir
  1375     0778  00BD               	movwf	??_sprintf+2
  1376     0779  083D               	movf	??_sprintf+2,w
  1377     077A  0242               	subwf	sprintf@val+1,w
  1378     077B  1D03               	skipz
  1379     077C  2F7F               	goto	u1005
  1380     077D  083C               	movf	??_sprintf+1,w
  1381     077E  0241               	subwf	sprintf@val,w
  1382     077F                     u1005:
  1383     077F  1803               	skipnc
  1384     0780  2F82               	goto	u1001
  1385     0781  2F83               	goto	u1000
  1386     0782                     u1001:
  1387     0782  2F84               	goto	l1597
  1388     0783                     u1000:
  1389     0783  2F8E               	goto	l1599
  1390     0784                     l1597:
  1391     0784  3001               	movlw	1
  1392     0785  00BB               	movwf	??_sprintf
  1393     0786  083B               	movf	??_sprintf,w
  1394     0787  07C4               	addwf	sprintf@c,f
  1395     0788  3005               	movlw	5
  1396     0789  0644               	xorwf	sprintf@c,w
  1397     078A  1D03               	btfss	3,2
  1398     078B  2F8D               	goto	u1011
  1399     078C  2F8E               	goto	u1010
  1400     078D                     u1011:
  1401     078D  2F68               	goto	l1593
  1402     078E                     u1010:
  1403     078E                     l1599:
  1404                           
  1405                           ;C:\Program Files\Microchip\xc8\v2.40\pic\sources\c90\common\doprnt.c: 1448:   {;C:\Prog
      +                          ram Files\Microchip\xc8\v2.40\pic\sources\c90\common\doprnt.c: 1464:    if(flag & 0x03)
  1406     078E  083F               	movf	sprintf@flag,w
  1407     078F  3903               	andlw	3
  1408     0790  1903               	btfsc	3,2
  1409     0791  2F93               	goto	u1021
  1410     0792  2F94               	goto	u1020
  1411     0793                     u1021:
  1412     0793  2F9D               	goto	l1605
  1413     0794                     u1020:
  1414     0794                     l1601:
  1415                           
  1416                           ;C:\Program Files\Microchip\xc8\v2.40\pic\sources\c90\common\doprnt.c: 1465:     ((*sp++
      +                           = ('-')));
  1417     0794  0843               	movf	sprintf@sp,w
  1418     0795  0084               	movwf	4
  1419     0796  302D               	movlw	45
  1420     0797  1383               	bcf	3,7	;select IRP bank0
  1421     0798  0080               	movwf	0
  1422     0799                     l1603:
  1423     0799  3001               	movlw	1
  1424     079A  00BB               	movwf	??_sprintf
  1425     079B  083B               	movf	??_sprintf,w
  1426     079C  07C3               	addwf	sprintf@sp,f
  1427     079D                     l1605:
  1428                           
  1429                           ;C:\Program Files\Microchip\xc8\v2.40\pic\sources\c90\common\doprnt.c: 1495:   };C:\Prog
      +                          ram Files\Microchip\xc8\v2.40\pic\sources\c90\common\doprnt.c: 1498:   prec = c;
  1430     079D  0844               	movf	sprintf@c,w
  1431     079E  00C0               	movwf	sprintf@prec
  1432                           
  1433                           ;C:\Program Files\Microchip\xc8\v2.40\pic\sources\c90\common\doprnt.c: 1500:   while(pre
      +                          c--) {
  1434     079F  2FD5               	goto	l1613
  1435     07A0                     l1607:
  1436                           
  1437                           ;C:\Program Files\Microchip\xc8\v2.40\pic\sources\c90\common\doprnt.c: 1504:    {;C:\Pro
      +                          gram Files\Microchip\xc8\v2.40\pic\sources\c90\common\doprnt.c: 1515:     c = (val / dpo
      +                          wers[(unsigned char)prec]) % 10 + '0';
  1438     07A0  300A               	movlw	10
  1439     07A1  00F8               	movwf	___lwmod@divisor
  1440     07A2  3000               	movlw	0
  1441     07A3  00F9               	movwf	___lwmod@divisor+1
  1442     07A4  0840               	movf	sprintf@prec,w
  1443     07A5  00BB               	movwf	??_sprintf
  1444     07A6  073B               	addwf	??_sprintf,w
  1445     07A7  3E01               	addlw	low ((_dpowers-__stringbase)| (0+32768))
  1446     07A8  0084               	movwf	4
  1447     07A9  120A  118A  2003  120A  118A  	fcall	stringdir
  1448     07AE  00F0               	movwf	___lwdiv@divisor
  1449     07AF  120A  118A  2003  120A  118A  	fcall	stringdir
  1450     07B4  00F1               	movwf	___lwdiv@divisor+1
  1451     07B5  0842               	movf	sprintf@val+1,w
  1452     07B6  00F3               	movwf	___lwdiv@dividend+1
  1453     07B7  0841               	movf	sprintf@val,w
  1454     07B8  00F2               	movwf	___lwdiv@dividend
  1455     07B9  120A  118A  249A  120A  118A  	fcall	___lwdiv
  1456     07BE  0871               	movf	?___lwdiv+1,w
  1457     07BF  00FB               	movwf	___lwmod@dividend+1
  1458     07C0  0870               	movf	?___lwdiv,w
  1459     07C1  00FA               	movwf	___lwmod@dividend
  1460     07C2  120A  118A  2460  120A  118A  	fcall	___lwmod
  1461     07C7  0878               	movf	?___lwmod,w
  1462     07C8  3E30               	addlw	48
  1463     07C9  1283               	bcf	3,5	;RP0=0, select bank0
  1464     07CA  1303               	bcf	3,6	;RP1=0, select bank0
  1465     07CB  00C4               	movwf	sprintf@c
  1466     07CC                     l1609:
  1467                           
  1468                           ;C:\Program Files\Microchip\xc8\v2.40\pic\sources\c90\common\doprnt.c: 1549:    };C:\Pro
      +                          gram Files\Microchip\xc8\v2.40\pic\sources\c90\common\doprnt.c: 1550:    ((*sp++ = (c)))
      +                          ;
  1469     07CC  0843               	movf	sprintf@sp,w
  1470     07CD  0084               	movwf	4
  1471     07CE  0844               	movf	sprintf@c,w
  1472     07CF  1383               	bcf	3,7	;select IRP bank0
  1473     07D0  0080               	movwf	0
  1474     07D1                     l1611:
  1475     07D1  3001               	movlw	1
  1476     07D2  00BB               	movwf	??_sprintf
  1477     07D3  083B               	movf	??_sprintf,w
  1478     07D4  07C3               	addwf	sprintf@sp,f
  1479     07D5                     l1613:
  1480                           
  1481                           ;C:\Program Files\Microchip\xc8\v2.40\pic\sources\c90\common\doprnt.c: 1500:   while(pre
      +                          c--) {
  1482     07D5  30FF               	movlw	255
  1483     07D6  00BB               	movwf	??_sprintf
  1484     07D7  083B               	movf	??_sprintf,w
  1485     07D8  07C0               	addwf	sprintf@prec,f
  1486     07D9  0A40               	incf	sprintf@prec,w
  1487     07DA  1D03               	btfss	3,2
  1488     07DB  2FDD               	goto	u1031
  1489     07DC  2FDE               	goto	u1030
  1490     07DD                     u1031:
  1491     07DD  2FA0               	goto	l1607
  1492     07DE                     u1030:
  1493     07DE                     l1615:
  1494                           
  1495                           ;C:\Program Files\Microchip\xc8\v2.40\pic\sources\c90\common\doprnt.c: 553:  while((c = 
      +                          *f++)) {
  1496     07DE  3001               	movlw	1
  1497     07DF  07B6               	addwf	sprintf@f,f
  1498     07E0  30FF               	movlw	-1
  1499     07E1  0736               	addwf	sprintf@f,w
  1500     07E2  0084               	movwf	4
  1501     07E3  120A  118A  2003  120A  118A  	fcall	stringdir
  1502     07E8  00C4               	movwf	sprintf@c
  1503     07E9  0844               	movf	sprintf@c,w
  1504     07EA  1D03               	btfss	3,2
  1505     07EB  2FED               	goto	u1041
  1506     07EC  2FEE               	goto	u1040
  1507     07ED                     u1041:
  1508     07ED  2F1F               	goto	l1565
  1509     07EE                     u1040:
  1510     07EE                     l1617:
  1511                           
  1512                           ;C:\Program Files\Microchip\xc8\v2.40\pic\sources\c90\common\doprnt.c: 1564:  *sp = 0;
  1513     07EE  0843               	movf	sprintf@sp,w
  1514     07EF  0084               	movwf	4
  1515     07F0  1383               	bcf	3,7	;select IRP bank0
  1516     07F1  0180               	clrf	0
  1517     07F2                     l355:
  1518     07F2  0008               	return
  1519     07F3                     __end_of_sprintf:
  1520                           
  1521                           	psect	text2
  1522     0460                     __ptext2:	
  1523 ;; *************** function ___lwmod *****************
  1524 ;; Defined at:
  1525 ;;		line 5 in file "C:\Program Files\Microchip\xc8\v2.40\pic\sources\c90\common\lwmod.c"
  1526 ;; Parameters:    Size  Location     Type
  1527 ;;  divisor         2    8[COMMON] unsigned int 
  1528 ;;  dividend        2   10[COMMON] unsigned int 
  1529 ;; Auto vars:     Size  Location     Type
  1530 ;;  counter         1   13[COMMON] unsigned char 
  1531 ;; Return value:  Size  Location     Type
  1532 ;;                  2    8[COMMON] unsigned int 
  1533 ;; Registers used:
  1534 ;;		wreg, status,2, status,0
  1535 ;; Tracked objects:
  1536 ;;		On entry : 0/0
  1537 ;;		On exit  : 0/0
  1538 ;;		Unchanged: 0/0
  1539 ;; Data sizes:     COMMON   BANK0   BANK1   BANK3   BANK2
  1540 ;;      Params:         4       0       0       0       0
  1541 ;;      Locals:         1       0       0       0       0
  1542 ;;      Temps:          1       0       0       0       0
  1543 ;;      Totals:         6       0       0       0       0
  1544 ;;Total ram usage:        6 bytes
  1545 ;; Hardware stack levels used: 1
  1546 ;; This function calls:
  1547 ;;		Nothing
  1548 ;; This function is called by:
  1549 ;;		_sprintf
  1550 ;; This function uses a non-reentrant model
  1551 ;;
  1552                           
  1553     0460                     ___lwmod:	
  1554                           ;psect for function ___lwmod
  1555                           
  1556     0460                     l1465:	
  1557                           ;incstack = 0
  1558                           ; Regs used in ___lwmod: [wreg+status,2+status,0]
  1559                           
  1560     0460  0878               	movf	___lwmod@divisor,w
  1561     0461  0479               	iorwf	___lwmod@divisor+1,w
  1562     0462  1903               	btfsc	3,2
  1563     0463  2C65               	goto	u861
  1564     0464  2C66               	goto	u860
  1565     0465                     u861:
  1566     0465  2C95               	goto	l1483
  1567     0466                     u860:
  1568     0466                     l1467:
  1569     0466  01FD               	clrf	___lwmod@counter
  1570     0467  0AFD               	incf	___lwmod@counter,f
  1571     0468  2C74               	goto	l1473
  1572     0469                     l1469:
  1573     0469  3001               	movlw	1
  1574     046A                     u875:
  1575     046A  1003               	clrc
  1576     046B  0DF8               	rlf	___lwmod@divisor,f
  1577     046C  0DF9               	rlf	___lwmod@divisor+1,f
  1578     046D  3EFF               	addlw	-1
  1579     046E  1D03               	skipz
  1580     046F  2C6A               	goto	u875
  1581     0470                     l1471:
  1582     0470  3001               	movlw	1
  1583     0471  00FC               	movwf	??___lwmod
  1584     0472  087C               	movf	??___lwmod,w
  1585     0473  07FD               	addwf	___lwmod@counter,f
  1586     0474                     l1473:
  1587     0474  1FF9               	btfss	___lwmod@divisor+1,7
  1588     0475  2C77               	goto	u881
  1589     0476  2C78               	goto	u880
  1590     0477                     u881:
  1591     0477  2C69               	goto	l1469
  1592     0478                     u880:
  1593     0478                     l1475:
  1594     0478  0879               	movf	___lwmod@divisor+1,w
  1595     0479  027B               	subwf	___lwmod@dividend+1,w
  1596     047A  1D03               	skipz
  1597     047B  2C7E               	goto	u895
  1598     047C  0878               	movf	___lwmod@divisor,w
  1599     047D  027A               	subwf	___lwmod@dividend,w
  1600     047E                     u895:
  1601     047E  1C03               	skipc
  1602     047F  2C81               	goto	u891
  1603     0480  2C82               	goto	u890
  1604     0481                     u891:
  1605     0481  2C88               	goto	l1479
  1606     0482                     u890:
  1607     0482                     l1477:
  1608     0482  0878               	movf	___lwmod@divisor,w
  1609     0483  02FA               	subwf	___lwmod@dividend,f
  1610     0484  0879               	movf	___lwmod@divisor+1,w
  1611     0485  1C03               	skipc
  1612     0486  03FB               	decf	___lwmod@dividend+1,f
  1613     0487  02FB               	subwf	___lwmod@dividend+1,f
  1614     0488                     l1479:
  1615     0488  3001               	movlw	1
  1616     0489                     u905:
  1617     0489  1003               	clrc
  1618     048A  0CF9               	rrf	___lwmod@divisor+1,f
  1619     048B  0CF8               	rrf	___lwmod@divisor,f
  1620     048C  3EFF               	addlw	-1
  1621     048D  1D03               	skipz
  1622     048E  2C89               	goto	u905
  1623     048F                     l1481:
  1624     048F  3001               	movlw	1
  1625     0490  02FD               	subwf	___lwmod@counter,f
  1626     0491  1D03               	btfss	3,2
  1627     0492  2C94               	goto	u911
  1628     0493  2C95               	goto	u910
  1629     0494                     u911:
  1630     0494  2C78               	goto	l1475
  1631     0495                     u910:
  1632     0495                     l1483:
  1633     0495  087B               	movf	___lwmod@dividend+1,w
  1634     0496  00F9               	movwf	?___lwmod+1
  1635     0497  087A               	movf	___lwmod@dividend,w
  1636     0498  00F8               	movwf	?___lwmod
  1637     0499                     l641:
  1638     0499  0008               	return
  1639     049A                     __end_of___lwmod:
  1640                           
  1641                           	psect	text3
  1642     049A                     __ptext3:	
  1643 ;; *************** function ___lwdiv *****************
  1644 ;; Defined at:
  1645 ;;		line 5 in file "C:\Program Files\Microchip\xc8\v2.40\pic\sources\c90\common\lwdiv.c"
  1646 ;; Parameters:    Size  Location     Type
  1647 ;;  divisor         2    0[COMMON] unsigned int 
  1648 ;;  dividend        2    2[COMMON] unsigned int 
  1649 ;; Auto vars:     Size  Location     Type
  1650 ;;  quotient        2    5[COMMON] unsigned int 
  1651 ;;  counter         1    7[COMMON] unsigned char 
  1652 ;; Return value:  Size  Location     Type
  1653 ;;                  2    0[COMMON] unsigned int 
  1654 ;; Registers used:
  1655 ;;		wreg, status,2, status,0
  1656 ;; Tracked objects:
  1657 ;;		On entry : 0/0
  1658 ;;		On exit  : 0/0
  1659 ;;		Unchanged: 0/0
  1660 ;; Data sizes:     COMMON   BANK0   BANK1   BANK3   BANK2
  1661 ;;      Params:         4       0       0       0       0
  1662 ;;      Locals:         3       0       0       0       0
  1663 ;;      Temps:          1       0       0       0       0
  1664 ;;      Totals:         8       0       0       0       0
  1665 ;;Total ram usage:        8 bytes
  1666 ;; Hardware stack levels used: 1
  1667 ;; This function calls:
  1668 ;;		Nothing
  1669 ;; This function is called by:
  1670 ;;		_sprintf
  1671 ;; This function uses a non-reentrant model
  1672 ;;
  1673                           
  1674     049A                     ___lwdiv:	
  1675                           ;psect for function ___lwdiv
  1676                           
  1677     049A                     l1439:	
  1678                           ;incstack = 0
  1679                           ; Regs used in ___lwdiv: [wreg+status,2+status,0]
  1680                           
  1681     049A  01F5               	clrf	___lwdiv@quotient
  1682     049B  01F6               	clrf	___lwdiv@quotient+1
  1683     049C                     l1441:
  1684     049C  0870               	movf	___lwdiv@divisor,w
  1685     049D  0471               	iorwf	___lwdiv@divisor+1,w
  1686     049E  1903               	btfsc	3,2
  1687     049F  2CA1               	goto	u791
  1688     04A0  2CA2               	goto	u790
  1689     04A1                     u791:
  1690     04A1  2CD9               	goto	l1461
  1691     04A2                     u790:
  1692     04A2                     l1443:
  1693     04A2  01F7               	clrf	___lwdiv@counter
  1694     04A3  0AF7               	incf	___lwdiv@counter,f
  1695     04A4  2CB0               	goto	l1449
  1696     04A5                     l1445:
  1697     04A5  3001               	movlw	1
  1698     04A6                     u805:
  1699     04A6  1003               	clrc
  1700     04A7  0DF0               	rlf	___lwdiv@divisor,f
  1701     04A8  0DF1               	rlf	___lwdiv@divisor+1,f
  1702     04A9  3EFF               	addlw	-1
  1703     04AA  1D03               	skipz
  1704     04AB  2CA6               	goto	u805
  1705     04AC                     l1447:
  1706     04AC  3001               	movlw	1
  1707     04AD  00F4               	movwf	??___lwdiv
  1708     04AE  0874               	movf	??___lwdiv,w
  1709     04AF  07F7               	addwf	___lwdiv@counter,f
  1710     04B0                     l1449:
  1711     04B0  1FF1               	btfss	___lwdiv@divisor+1,7
  1712     04B1  2CB3               	goto	u811
  1713     04B2  2CB4               	goto	u810
  1714     04B3                     u811:
  1715     04B3  2CA5               	goto	l1445
  1716     04B4                     u810:
  1717     04B4                     l1451:
  1718     04B4  3001               	movlw	1
  1719     04B5                     u825:
  1720     04B5  1003               	clrc
  1721     04B6  0DF5               	rlf	___lwdiv@quotient,f
  1722     04B7  0DF6               	rlf	___lwdiv@quotient+1,f
  1723     04B8  3EFF               	addlw	-1
  1724     04B9  1D03               	skipz
  1725     04BA  2CB5               	goto	u825
  1726     04BB  0871               	movf	___lwdiv@divisor+1,w
  1727     04BC  0273               	subwf	___lwdiv@dividend+1,w
  1728     04BD  1D03               	skipz
  1729     04BE  2CC1               	goto	u835
  1730     04BF  0870               	movf	___lwdiv@divisor,w
  1731     04C0  0272               	subwf	___lwdiv@dividend,w
  1732     04C1                     u835:
  1733     04C1  1C03               	skipc
  1734     04C2  2CC4               	goto	u831
  1735     04C3  2CC5               	goto	u830
  1736     04C4                     u831:
  1737     04C4  2CCC               	goto	l1457
  1738     04C5                     u830:
  1739     04C5                     l1453:
  1740     04C5  0870               	movf	___lwdiv@divisor,w
  1741     04C6  02F2               	subwf	___lwdiv@dividend,f
  1742     04C7  0871               	movf	___lwdiv@divisor+1,w
  1743     04C8  1C03               	skipc
  1744     04C9  03F3               	decf	___lwdiv@dividend+1,f
  1745     04CA  02F3               	subwf	___lwdiv@dividend+1,f
  1746     04CB                     l1455:
  1747     04CB  1475               	bsf	___lwdiv@quotient,0
  1748     04CC                     l1457:
  1749     04CC  3001               	movlw	1
  1750     04CD                     u845:
  1751     04CD  1003               	clrc
  1752     04CE  0CF1               	rrf	___lwdiv@divisor+1,f
  1753     04CF  0CF0               	rrf	___lwdiv@divisor,f
  1754     04D0  3EFF               	addlw	-1
  1755     04D1  1D03               	skipz
  1756     04D2  2CCD               	goto	u845
  1757     04D3                     l1459:
  1758     04D3  3001               	movlw	1
  1759     04D4  02F7               	subwf	___lwdiv@counter,f
  1760     04D5  1D03               	btfss	3,2
  1761     04D6  2CD8               	goto	u851
  1762     04D7  2CD9               	goto	u850
  1763     04D8                     u851:
  1764     04D8  2CB4               	goto	l1451
  1765     04D9                     u850:
  1766     04D9                     l1461:
  1767     04D9  0876               	movf	___lwdiv@quotient+1,w
  1768     04DA  00F1               	movwf	?___lwdiv+1
  1769     04DB  0875               	movf	___lwdiv@quotient,w
  1770     04DC  00F0               	movwf	?___lwdiv
  1771     04DD                     l631:
  1772     04DD  0008               	return
  1773     04DE                     __end_of___lwdiv:
  1774                           
  1775                           	psect	text4
  1776     039D                     __ptext4:	
  1777 ;; *************** function _setup *****************
  1778 ;; Defined at:
  1779 ;;		line 100 in file "main_M.c"
  1780 ;; Parameters:    Size  Location     Type
  1781 ;;		None
  1782 ;; Auto vars:     Size  Location     Type
  1783 ;;		None
  1784 ;; Return value:  Size  Location     Type
  1785 ;;                  1    wreg      void 
  1786 ;; Registers used:
  1787 ;;		wreg, status,2, status,0, pclath, cstack
  1788 ;; Tracked objects:
  1789 ;;		On entry : 0/0
  1790 ;;		On exit  : 0/0
  1791 ;;		Unchanged: 0/0
  1792 ;; Data sizes:     COMMON   BANK0   BANK1   BANK3   BANK2
  1793 ;;      Params:         0       0       0       0       0
  1794 ;;      Locals:         0       0       0       0       0
  1795 ;;      Temps:          0       0       0       0       0
  1796 ;;      Totals:         0       0       0       0       0
  1797 ;;Total ram usage:        0 bytes
  1798 ;; Hardware stack levels used: 1
  1799 ;; Hardware stack levels required when called: 3
  1800 ;; This function calls:
  1801 ;;		_I2C_Master_Init
  1802 ;;		_Lcd_Init_4bits
  1803 ;;		_setupINTOSC
  1804 ;; This function is called by:
  1805 ;;		_main
  1806 ;; This function uses a non-reentrant model
  1807 ;;
  1808                           
  1809     039D                     _setup:	
  1810                           ;psect for function _setup
  1811                           
  1812     039D                     l1545:	
  1813                           ;incstack = 0
  1814                           ; Regs used in _setup: [wreg+status,2+status,0+pclath+cstack]
  1815                           
  1816                           
  1817                           ;main_M.c: 102:     ANSEL = 0;
  1818     039D  1683               	bsf	3,5	;RP0=1, select bank3
  1819     039E  1703               	bsf	3,6	;RP1=1, select bank3
  1820     039F  0188               	clrf	8	;volatile
  1821                           
  1822                           ;main_M.c: 103:     ANSELH = 0;
  1823     03A0  0189               	clrf	9	;volatile
  1824                           
  1825                           ;main_M.c: 105:     TRISA = 0;
  1826     03A1  1683               	bsf	3,5	;RP0=1, select bank1
  1827     03A2  1303               	bcf	3,6	;RP1=0, select bank1
  1828     03A3  0185               	clrf	5	;volatile
  1829     03A4                     l1547:
  1830                           
  1831                           ;main_M.c: 106:     TRISB = 0b00000010;
  1832     03A4  3002               	movlw	2
  1833     03A5  0086               	movwf	6	;volatile
  1834     03A6                     l1549:
  1835                           
  1836                           ;main_M.c: 107:     TRISD = 0;
  1837     03A6  0188               	clrf	8	;volatile
  1838     03A7                     l1551:
  1839                           
  1840                           ;main_M.c: 115:     PORTA = 0;
  1841     03A7  1283               	bcf	3,5	;RP0=0, select bank0
  1842     03A8  1303               	bcf	3,6	;RP1=0, select bank0
  1843     03A9  0185               	clrf	5	;volatile
  1844     03AA                     l1553:
  1845                           
  1846                           ;main_M.c: 116:     PORTB = 0;
  1847     03AA  0186               	clrf	6	;volatile
  1848     03AB                     l1555:
  1849                           
  1850                           ;main_M.c: 117:     PORTD = 0;
  1851     03AB  0188               	clrf	8	;volatile
  1852     03AC                     l1557:
  1853                           
  1854                           ;main_M.c: 119:     I2C_Master_Init(100000);
  1855     03AC  3000               	movlw	0
  1856     03AD  00B9               	movwf	I2C_Master_Init@c+3
  1857     03AE  3001               	movlw	1
  1858     03AF  00B8               	movwf	I2C_Master_Init@c+2
  1859     03B0  3086               	movlw	134
  1860     03B1  00B7               	movwf	I2C_Master_Init@c+1
  1861     03B2  30A0               	movlw	160
  1862     03B3  00B6               	movwf	I2C_Master_Init@c
  1863     03B4  120A  118A  2428  120A  118A  	fcall	_I2C_Master_Init
  1864     03B9                     l1559:
  1865                           
  1866                           ;main_M.c: 120:     setupINTOSC(FOSC_8MHZ);
  1867     03B9  3007               	movlw	7
  1868     03BA  120A  118A  2333  120A  118A  	fcall	_setupINTOSC
  1869     03BF                     l1561:
  1870                           
  1871                           ;main_M.c: 121:     Lcd_Init_4bits();
  1872     03BF  120A  118A  2524  120A  118A  	fcall	_Lcd_Init_4bits
  1873     03C4                     l162:
  1874     03C4  0008               	return
  1875     03C5                     __end_of_setup:
  1876                           
  1877                           	psect	text5
  1878     0333                     __ptext5:	
  1879 ;; *************** function _setupINTOSC *****************
  1880 ;; Defined at:
  1881 ;;		line 11 in file "configINTOSC.c"
  1882 ;; Parameters:    Size  Location     Type
  1883 ;;  F               1    wreg     enum E1292
  1884 ;; Auto vars:     Size  Location     Type
  1885 ;;  F               1    1[COMMON] enum E1292
  1886 ;; Return value:  Size  Location     Type
  1887 ;;                  1    wreg      void 
  1888 ;; Registers used:
  1889 ;;		wreg, status,2, status,0
  1890 ;; Tracked objects:
  1891 ;;		On entry : 0/0
  1892 ;;		On exit  : 0/0
  1893 ;;		Unchanged: 0/0
  1894 ;; Data sizes:     COMMON   BANK0   BANK1   BANK3   BANK2
  1895 ;;      Params:         0       0       0       0       0
  1896 ;;      Locals:         1       0       0       0       0
  1897 ;;      Temps:          1       0       0       0       0
  1898 ;;      Totals:         2       0       0       0       0
  1899 ;;Total ram usage:        2 bytes
  1900 ;; Hardware stack levels used: 1
  1901 ;; This function calls:
  1902 ;;		Nothing
  1903 ;; This function is called by:
  1904 ;;		_setup
  1905 ;; This function uses a non-reentrant model
  1906 ;;
  1907                           
  1908     0333                     _setupINTOSC:	
  1909                           ;psect for function _setupINTOSC
  1910                           
  1911                           
  1912                           ;incstack = 0
  1913                           ; Regs used in _setupINTOSC: [wreg+status,2+status,0]
  1914                           ;setupINTOSC@F stored from wreg
  1915     0333  00F1               	movwf	setupINTOSC@F
  1916     0334                     l1405:
  1917                           
  1918                           ;configINTOSC.c: 13:     OSCCONbits.IRCF = F ;
  1919     0334  0871               	movf	setupINTOSC@F,w
  1920     0335  00F0               	movwf	??_setupINTOSC
  1921     0336  0EF0               	swapf	??_setupINTOSC,f
  1922     0337  1683               	bsf	3,5	;RP0=1, select bank1
  1923     0338  1303               	bcf	3,6	;RP1=0, select bank1
  1924     0339  080F               	movf	15,w	;volatile
  1925     033A  0670               	xorwf	??_setupINTOSC,w
  1926     033B  398F               	andlw	-113
  1927     033C  0670               	xorwf	??_setupINTOSC,w
  1928     033D  008F               	movwf	15	;volatile
  1929     033E                     l1407:
  1930                           
  1931                           ;configINTOSC.c: 14:     OSCCONbits.SCS = 1;
  1932     033E  140F               	bsf	15,0	;volatile
  1933     033F                     l60:
  1934     033F  0008               	return
  1935     0340                     __end_of_setupINTOSC:
  1936                           
  1937                           	psect	text6
  1938     0524                     __ptext6:	
  1939 ;; *************** function _Lcd_Init_4bits *****************
  1940 ;; Defined at:
  1941 ;;		line 66 in file "configLCD_4bits.c"
  1942 ;; Parameters:    Size  Location     Type
  1943 ;;		None
  1944 ;; Auto vars:     Size  Location     Type
  1945 ;;		None
  1946 ;; Return value:  Size  Location     Type
  1947 ;;                  1    wreg      void 
  1948 ;; Registers used:
  1949 ;;		wreg, status,2, status,0, pclath, cstack
  1950 ;; Tracked objects:
  1951 ;;		On entry : 0/0
  1952 ;;		On exit  : 0/0
  1953 ;;		Unchanged: 0/0
  1954 ;; Data sizes:     COMMON   BANK0   BANK1   BANK3   BANK2
  1955 ;;      Params:         0       0       0       0       0
  1956 ;;      Locals:         0       0       0       0       0
  1957 ;;      Temps:          2       0       0       0       0
  1958 ;;      Totals:         2       0       0       0       0
  1959 ;;Total ram usage:        2 bytes
  1960 ;; Hardware stack levels used: 1
  1961 ;; Hardware stack levels required when called: 2
  1962 ;; This function calls:
  1963 ;;		_Lcd_Cmd_4bits
  1964 ;;		_Lcd_Port_4bits
  1965 ;; This function is called by:
  1966 ;;		_setup
  1967 ;; This function uses a non-reentrant model
  1968 ;;
  1969                           
  1970     0524                     _Lcd_Init_4bits:	
  1971                           ;psect for function _Lcd_Init_4bits
  1972                           
  1973     0524                     l1409:	
  1974                           ;incstack = 0
  1975                           ; Regs used in _Lcd_Init_4bits: [wreg+status,2+status,0+pclath+cstack]
  1976                           
  1977                           
  1978                           ;configLCD_4bits.c: 67:     Lcd_Port_4bits(0x00);
  1979     0524  3000               	movlw	0
  1980     0525  120A  118A  237B  120A  118A  	fcall	_Lcd_Port_4bits
  1981     052A                     l1411:
  1982                           
  1983                           ;configLCD_4bits.c: 68:     _delay((unsigned long)((20)*(8000000/4000.0)));
  1984     052A  3034               	movlw	52
  1985     052B  00F5               	movwf	??_Lcd_Init_4bits+1
  1986     052C  30F1               	movlw	241
  1987     052D  00F4               	movwf	??_Lcd_Init_4bits
  1988     052E                     u1227:
  1989     052E  0BF4               	decfsz	??_Lcd_Init_4bits,f
  1990     052F  2D2E               	goto	u1227
  1991     0530  0BF5               	decfsz	??_Lcd_Init_4bits+1,f
  1992     0531  2D2E               	goto	u1227
  1993     0532  2D33               	nop2
  1994     0533                     l1413:
  1995                           
  1996                           ;configLCD_4bits.c: 69:     Lcd_Cmd_4bits(0x03);
  1997     0533  3003               	movlw	3
  1998     0534  120A  118A  2340  120A  118A  	fcall	_Lcd_Cmd_4bits
  1999                           
  2000                           ;configLCD_4bits.c: 70:     _delay((unsigned long)((5)*(8000000/4000.0)));
  2001     0539  300D               	movlw	13
  2002     053A  00F5               	movwf	??_Lcd_Init_4bits+1
  2003     053B  30FB               	movlw	251
  2004     053C  00F4               	movwf	??_Lcd_Init_4bits
  2005     053D                     u1237:
  2006     053D  0BF4               	decfsz	??_Lcd_Init_4bits,f
  2007     053E  2D3D               	goto	u1237
  2008     053F  0BF5               	decfsz	??_Lcd_Init_4bits+1,f
  2009     0540  2D3D               	goto	u1237
  2010     0541  2D42               	nop2
  2011     0542                     l1415:
  2012                           
  2013                           ;configLCD_4bits.c: 71:     Lcd_Cmd_4bits(0x03);
  2014     0542  3003               	movlw	3
  2015     0543  120A  118A  2340  120A  118A  	fcall	_Lcd_Cmd_4bits
  2016     0548                     l1417:
  2017                           
  2018                           ;configLCD_4bits.c: 72:     _delay((unsigned long)((11)*(8000000/4000.0)));
  2019     0548  301D               	movlw	29
  2020     0549  00F5               	movwf	??_Lcd_Init_4bits+1
  2021     054A  3091               	movlw	145
  2022     054B  00F4               	movwf	??_Lcd_Init_4bits
  2023     054C                     u1247:
  2024     054C  0BF4               	decfsz	??_Lcd_Init_4bits,f
  2025     054D  2D4C               	goto	u1247
  2026     054E  0BF5               	decfsz	??_Lcd_Init_4bits+1,f
  2027     054F  2D4C               	goto	u1247
  2028                           
  2029                           ;configLCD_4bits.c: 73:     Lcd_Cmd_4bits(0x03);
  2030     0550  3003               	movlw	3
  2031     0551  120A  118A  2340  120A  118A  	fcall	_Lcd_Cmd_4bits
  2032                           
  2033                           ;configLCD_4bits.c: 75:     Lcd_Cmd_4bits(0x02);
  2034     0556  3002               	movlw	2
  2035     0557  120A  118A  2340  120A  118A  	fcall	_Lcd_Cmd_4bits
  2036                           
  2037                           ;configLCD_4bits.c: 76:     Lcd_Cmd_4bits(0x02);
  2038     055C  3002               	movlw	2
  2039     055D  120A  118A  2340  120A  118A  	fcall	_Lcd_Cmd_4bits
  2040                           
  2041                           ;configLCD_4bits.c: 77:     Lcd_Cmd_4bits(0x08);
  2042     0562  3008               	movlw	8
  2043     0563  120A  118A  2340  120A  118A  	fcall	_Lcd_Cmd_4bits
  2044                           
  2045                           ;configLCD_4bits.c: 78:     Lcd_Cmd_4bits(0x00);
  2046     0568  3000               	movlw	0
  2047     0569  120A  118A  2340  120A  118A  	fcall	_Lcd_Cmd_4bits
  2048                           
  2049                           ;configLCD_4bits.c: 79:     Lcd_Cmd_4bits(0x0C);
  2050     056E  300C               	movlw	12
  2051     056F  120A  118A  2340  120A  118A  	fcall	_Lcd_Cmd_4bits
  2052                           
  2053                           ;configLCD_4bits.c: 80:     Lcd_Cmd_4bits(0x00);
  2054     0574  3000               	movlw	0
  2055     0575  120A  118A  2340  120A  118A  	fcall	_Lcd_Cmd_4bits
  2056                           
  2057                           ;configLCD_4bits.c: 81:     Lcd_Cmd_4bits(0x06);
  2058     057A  3006               	movlw	6
  2059     057B  120A  118A  2340  120A  118A  	fcall	_Lcd_Cmd_4bits
  2060     0580                     l90:
  2061     0580  0008               	return
  2062     0581                     __end_of_Lcd_Init_4bits:
  2063                           
  2064                           	psect	text7
  2065     0428                     __ptext7:	
  2066 ;; *************** function _I2C_Master_Init *****************
  2067 ;; Defined at:
  2068 ;;		line 13 in file "configI2C.c"
  2069 ;; Parameters:    Size  Location     Type
  2070 ;;  c               4    0[BANK0 ] const unsigned long 
  2071 ;; Auto vars:     Size  Location     Type
  2072 ;;		None
  2073 ;; Return value:  Size  Location     Type
  2074 ;;                  1    wreg      void 
  2075 ;; Registers used:
  2076 ;;		wreg, status,2, status,0, pclath, cstack
  2077 ;; Tracked objects:
  2078 ;;		On entry : 0/0
  2079 ;;		On exit  : 0/0
  2080 ;;		Unchanged: 0/0
  2081 ;; Data sizes:     COMMON   BANK0   BANK1   BANK3   BANK2
  2082 ;;      Params:         0       4       0       0       0
  2083 ;;      Locals:         0       0       0       0       0
  2084 ;;      Temps:          0       4       0       0       0
  2085 ;;      Totals:         0       8       0       0       0
  2086 ;;Total ram usage:        8 bytes
  2087 ;; Hardware stack levels used: 1
  2088 ;; Hardware stack levels required when called: 1
  2089 ;; This function calls:
  2090 ;;		___lldiv
  2091 ;; This function is called by:
  2092 ;;		_setup
  2093 ;; This function uses a non-reentrant model
  2094 ;;
  2095                           
  2096     0428                     _I2C_Master_Init:	
  2097                           ;psect for function _I2C_Master_Init
  2098                           
  2099     0428                     l1389:	
  2100                           ;incstack = 0
  2101                           ; Regs used in _I2C_Master_Init: [wreg+status,2+status,0+pclath+cstack]
  2102                           
  2103                           
  2104                           ;configI2C.c: 13: void I2C_Master_Init(const unsigned long c);configI2C.c: 14: {;configI
      +                          2C.c: 15:     SSPCON = 0b00101000;
  2105     0428  3028               	movlw	40
  2106     0429  1283               	bcf	3,5	;RP0=0, select bank0
  2107     042A  1303               	bcf	3,6	;RP1=0, select bank0
  2108     042B  0094               	movwf	20	;volatile
  2109     042C                     l1391:
  2110                           
  2111                           ;configI2C.c: 16:     SSPCON2 = 0;
  2112     042C  1683               	bsf	3,5	;RP0=1, select bank1
  2113     042D  1303               	bcf	3,6	;RP1=0, select bank1
  2114     042E  0191               	clrf	17	;volatile
  2115     042F                     l1393:
  2116                           
  2117                           ;configI2C.c: 17:     SSPADD = (8000000/(4*c))-1;
  2118     042F  1283               	bcf	3,5	;RP0=0, select bank0
  2119     0430  1303               	bcf	3,6	;RP1=0, select bank0
  2120     0431  0836               	movf	I2C_Master_Init@c,w
  2121     0432  00BA               	movwf	??_I2C_Master_Init
  2122     0433  0837               	movf	I2C_Master_Init@c+1,w
  2123     0434  00BB               	movwf	??_I2C_Master_Init+1
  2124     0435  0838               	movf	I2C_Master_Init@c+2,w
  2125     0436  00BC               	movwf	??_I2C_Master_Init+2
  2126     0437  0839               	movf	I2C_Master_Init@c+3,w
  2127     0438  00BD               	movwf	??_I2C_Master_Init+3
  2128     0439  3002               	movlw	2
  2129     043A                     u755:
  2130     043A  1003               	clrc
  2131     043B  0DBA               	rlf	??_I2C_Master_Init,f
  2132     043C  0DBB               	rlf	??_I2C_Master_Init+1,f
  2133     043D  0DBC               	rlf	??_I2C_Master_Init+2,f
  2134     043E  0DBD               	rlf	??_I2C_Master_Init+3,f
  2135     043F                     u750:
  2136     043F  3EFF               	addlw	-1
  2137     0440  1D03               	skipz
  2138     0441  2C3A               	goto	u755
  2139     0442  083D               	movf	??_I2C_Master_Init+3,w
  2140     0443  00F3               	movwf	___lldiv@divisor+3
  2141     0444  083C               	movf	??_I2C_Master_Init+2,w
  2142     0445  00F2               	movwf	___lldiv@divisor+2
  2143     0446  083B               	movf	??_I2C_Master_Init+1,w
  2144     0447  00F1               	movwf	___lldiv@divisor+1
  2145     0448  083A               	movf	??_I2C_Master_Init,w
  2146     0449  00F0               	movwf	___lldiv@divisor
  2147     044A  3000               	movlw	0
  2148     044B  00F7               	movwf	___lldiv@dividend+3
  2149     044C  307A               	movlw	122
  2150     044D  00F6               	movwf	___lldiv@dividend+2
  2151     044E  3012               	movlw	18
  2152     044F  00F5               	movwf	___lldiv@dividend+1
  2153     0450  3000               	movlw	0
  2154     0451  00F4               	movwf	___lldiv@dividend
  2155     0452  120A  118A  2581  120A  118A  	fcall	___lldiv
  2156     0457  0870               	movf	?___lldiv,w
  2157     0458  3EFF               	addlw	255
  2158     0459  1683               	bsf	3,5	;RP0=1, select bank1
  2159     045A  1303               	bcf	3,6	;RP1=0, select bank1
  2160     045B  0093               	movwf	19	;volatile
  2161     045C                     l1395:
  2162                           
  2163                           ;configI2C.c: 18:     SSPSTAT = 0;
  2164     045C  0194               	clrf	20	;volatile
  2165     045D                     l1397:
  2166                           
  2167                           ;configI2C.c: 19:     TRISCbits.TRISC3 = 1;
  2168     045D  1587               	bsf	7,3	;volatile
  2169     045E                     l1399:
  2170                           
  2171                           ;configI2C.c: 20:     TRISCbits.TRISC4 = 1;
  2172     045E  1607               	bsf	7,4	;volatile
  2173     045F                     l29:
  2174     045F  0008               	return
  2175     0460                     __end_of_I2C_Master_Init:
  2176                           
  2177                           	psect	text8
  2178     0581                     __ptext8:	
  2179 ;; *************** function ___lldiv *****************
  2180 ;; Defined at:
  2181 ;;		line 5 in file "C:\Program Files\Microchip\xc8\v2.40\pic\sources\c90\common\__lldiv.c"
  2182 ;; Parameters:    Size  Location     Type
  2183 ;;  divisor         4    0[COMMON] unsigned long 
  2184 ;;  dividend        4    4[COMMON] unsigned long 
  2185 ;; Auto vars:     Size  Location     Type
  2186 ;;  quotient        4    9[COMMON] unsigned long 
  2187 ;;  counter         1   13[COMMON] unsigned char 
  2188 ;; Return value:  Size  Location     Type
  2189 ;;                  4    0[COMMON] unsigned long 
  2190 ;; Registers used:
  2191 ;;		wreg, status,2, status,0
  2192 ;; Tracked objects:
  2193 ;;		On entry : 0/0
  2194 ;;		On exit  : 0/0
  2195 ;;		Unchanged: 0/0
  2196 ;; Data sizes:     COMMON   BANK0   BANK1   BANK3   BANK2
  2197 ;;      Params:         8       0       0       0       0
  2198 ;;      Locals:         5       0       0       0       0
  2199 ;;      Temps:          1       0       0       0       0
  2200 ;;      Totals:        14       0       0       0       0
  2201 ;;Total ram usage:       14 bytes
  2202 ;; Hardware stack levels used: 1
  2203 ;; This function calls:
  2204 ;;		Nothing
  2205 ;; This function is called by:
  2206 ;;		_I2C_Master_Init
  2207 ;; This function uses a non-reentrant model
  2208 ;;
  2209                           
  2210     0581                     ___lldiv:	
  2211                           ;psect for function ___lldiv
  2212                           
  2213     0581                     l1365:	
  2214                           ;incstack = 0
  2215                           ; Regs used in ___lldiv: [wreg+status,2+status,0]
  2216                           
  2217     0581  3000               	movlw	0
  2218     0582  00FC               	movwf	___lldiv@quotient+3
  2219     0583  3000               	movlw	0
  2220     0584  00FB               	movwf	___lldiv@quotient+2
  2221     0585  3000               	movlw	0
  2222     0586  00FA               	movwf	___lldiv@quotient+1
  2223     0587  3000               	movlw	0
  2224     0588  00F9               	movwf	___lldiv@quotient
  2225     0589  0873               	movf	___lldiv@divisor+3,w
  2226     058A  0472               	iorwf	___lldiv@divisor+2,w
  2227     058B  0471               	iorwf	___lldiv@divisor+1,w
  2228     058C  0470               	iorwf	___lldiv@divisor,w
  2229     058D  1903               	skipnz
  2230     058E  2D90               	goto	u681
  2231     058F  2D91               	goto	u680
  2232     0590                     u681:
  2233     0590  2DDE               	goto	l1385
  2234     0591                     u680:
  2235     0591                     l1367:
  2236     0591  01FD               	clrf	___lldiv@counter
  2237     0592  0AFD               	incf	___lldiv@counter,f
  2238     0593  2DA1               	goto	l1371
  2239     0594                     l1369:
  2240     0594  3001               	movlw	1
  2241     0595  00F8               	movwf	??___lldiv
  2242     0596                     u695:
  2243     0596  1003               	clrc
  2244     0597  0DF0               	rlf	___lldiv@divisor,f
  2245     0598  0DF1               	rlf	___lldiv@divisor+1,f
  2246     0599  0DF2               	rlf	___lldiv@divisor+2,f
  2247     059A  0DF3               	rlf	___lldiv@divisor+3,f
  2248     059B  0BF8               	decfsz	??___lldiv,f
  2249     059C  2D96               	goto	u695
  2250     059D  3001               	movlw	1
  2251     059E  00F8               	movwf	??___lldiv
  2252     059F  0878               	movf	??___lldiv,w
  2253     05A0  07FD               	addwf	___lldiv@counter,f
  2254     05A1                     l1371:
  2255     05A1  1FF3               	btfss	___lldiv@divisor+3,7
  2256     05A2  2DA4               	goto	u701
  2257     05A3  2DA5               	goto	u700
  2258     05A4                     u701:
  2259     05A4  2D94               	goto	l1369
  2260     05A5                     u700:
  2261     05A5                     l1373:
  2262     05A5  3001               	movlw	1
  2263     05A6  00F8               	movwf	??___lldiv
  2264     05A7                     u715:
  2265     05A7  1003               	clrc
  2266     05A8  0DF9               	rlf	___lldiv@quotient,f
  2267     05A9  0DFA               	rlf	___lldiv@quotient+1,f
  2268     05AA  0DFB               	rlf	___lldiv@quotient+2,f
  2269     05AB  0DFC               	rlf	___lldiv@quotient+3,f
  2270     05AC  0BF8               	decfsz	??___lldiv,f
  2271     05AD  2DA7               	goto	u715
  2272     05AE                     l1375:
  2273     05AE  0873               	movf	___lldiv@divisor+3,w
  2274     05AF  0277               	subwf	___lldiv@dividend+3,w
  2275     05B0  1D03               	skipz
  2276     05B1  2DBC               	goto	u725
  2277     05B2  0872               	movf	___lldiv@divisor+2,w
  2278     05B3  0276               	subwf	___lldiv@dividend+2,w
  2279     05B4  1D03               	skipz
  2280     05B5  2DBC               	goto	u725
  2281     05B6  0871               	movf	___lldiv@divisor+1,w
  2282     05B7  0275               	subwf	___lldiv@dividend+1,w
  2283     05B8  1D03               	skipz
  2284     05B9  2DBC               	goto	u725
  2285     05BA  0870               	movf	___lldiv@divisor,w
  2286     05BB  0274               	subwf	___lldiv@dividend,w
  2287     05BC                     u725:
  2288     05BC  1C03               	skipc
  2289     05BD  2DBF               	goto	u721
  2290     05BE  2DC0               	goto	u720
  2291     05BF                     u721:
  2292     05BF  2DCF               	goto	l1381
  2293     05C0                     u720:
  2294     05C0                     l1377:
  2295     05C0  0870               	movf	___lldiv@divisor,w
  2296     05C1  02F4               	subwf	___lldiv@dividend,f
  2297     05C2  0871               	movf	___lldiv@divisor+1,w
  2298     05C3  1C03               	skipc
  2299     05C4  0F71               	incfsz	___lldiv@divisor+1,w
  2300     05C5  02F5               	subwf	___lldiv@dividend+1,f
  2301     05C6  0872               	movf	___lldiv@divisor+2,w
  2302     05C7  1C03               	skipc
  2303     05C8  0F72               	incfsz	___lldiv@divisor+2,w
  2304     05C9  02F6               	subwf	___lldiv@dividend+2,f
  2305     05CA  0873               	movf	___lldiv@divisor+3,w
  2306     05CB  1C03               	skipc
  2307     05CC  0F73               	incfsz	___lldiv@divisor+3,w
  2308     05CD  02F7               	subwf	___lldiv@dividend+3,f
  2309     05CE                     l1379:
  2310     05CE  1479               	bsf	___lldiv@quotient,0
  2311     05CF                     l1381:
  2312     05CF  3001               	movlw	1
  2313     05D0                     u735:
  2314     05D0  1003               	clrc
  2315     05D1  0CF3               	rrf	___lldiv@divisor+3,f
  2316     05D2  0CF2               	rrf	___lldiv@divisor+2,f
  2317     05D3  0CF1               	rrf	___lldiv@divisor+1,f
  2318     05D4  0CF0               	rrf	___lldiv@divisor,f
  2319     05D5  3EFF               	addlw	-1
  2320     05D6  1D03               	skipz
  2321     05D7  2DD0               	goto	u735
  2322     05D8                     l1383:
  2323     05D8  3001               	movlw	1
  2324     05D9  02FD               	subwf	___lldiv@counter,f
  2325     05DA  1D03               	btfss	3,2
  2326     05DB  2DDD               	goto	u741
  2327     05DC  2DDE               	goto	u740
  2328     05DD                     u741:
  2329     05DD  2DA5               	goto	l1373
  2330     05DE                     u740:
  2331     05DE                     l1385:
  2332     05DE  087C               	movf	___lldiv@quotient+3,w
  2333     05DF  00F3               	movwf	?___lldiv+3
  2334     05E0  087B               	movf	___lldiv@quotient+2,w
  2335     05E1  00F2               	movwf	?___lldiv+2
  2336     05E2  087A               	movf	___lldiv@quotient+1,w
  2337     05E3  00F1               	movwf	?___lldiv+1
  2338     05E4  0879               	movf	___lldiv@quotient,w
  2339     05E5  00F0               	movwf	?___lldiv
  2340     05E6                     l395:
  2341     05E6  0008               	return
  2342     05E7                     __end_of___lldiv:
  2343                           
  2344                           	psect	text9
  2345     065F                     __ptext9:	
  2346 ;; *************** function ___xxtofl *****************
  2347 ;; Defined at:
  2348 ;;		line 10 in file "C:\Program Files\Microchip\xc8\v2.40\pic\sources\c90\common\xxtofl.c"
  2349 ;; Parameters:    Size  Location     Type
  2350 ;;  sign            1    wreg     unsigned char 
  2351 ;;  val             4    6[COMMON] long 
  2352 ;; Auto vars:     Size  Location     Type
  2353 ;;  sign            1    0[BANK0 ] unsigned char 
  2354 ;;  arg             4    2[BANK0 ] unsigned long 
  2355 ;;  exp             1    1[BANK0 ] unsigned char 
  2356 ;; Return value:  Size  Location     Type
  2357 ;;                  4    6[COMMON] unsigned char 
  2358 ;; Registers used:
  2359 ;;		wreg, status,2, status,0
  2360 ;; Tracked objects:
  2361 ;;		On entry : 0/0
  2362 ;;		On exit  : 0/0
  2363 ;;		Unchanged: 0/0
  2364 ;; Data sizes:     COMMON   BANK0   BANK1   BANK3   BANK2
  2365 ;;      Params:         4       0       0       0       0
  2366 ;;      Locals:         0       6       0       0       0
  2367 ;;      Temps:          4       0       0       0       0
  2368 ;;      Totals:         8       6       0       0       0
  2369 ;;Total ram usage:       14 bytes
  2370 ;; Hardware stack levels used: 1
  2371 ;; This function calls:
  2372 ;;		Nothing
  2373 ;; This function is called by:
  2374 ;;		_main
  2375 ;;		_medir_distancia
  2376 ;; This function uses a non-reentrant model
  2377 ;;
  2378                           
  2379     065F                     ___xxtofl:	
  2380                           ;psect for function ___xxtofl
  2381                           
  2382                           
  2383                           ;incstack = 0
  2384                           ; Regs used in ___xxtofl: [wreg+status,2+status,0]
  2385                           ;___xxtofl@sign stored from wreg
  2386     065F  1283               	bcf	3,5	;RP0=0, select bank0
  2387     0660  1303               	bcf	3,6	;RP1=0, select bank0
  2388     0661  00B6               	movwf	___xxtofl@sign
  2389     0662                     l1625:
  2390     0662  0836               	movf	___xxtofl@sign,w
  2391     0663  1903               	btfsc	3,2
  2392     0664  2E66               	goto	u1051
  2393     0665  2E67               	goto	u1050
  2394     0666                     u1051:
  2395     0666  2E7B               	goto	l1631
  2396     0667                     u1050:
  2397     0667                     l1627:
  2398     0667  1FF9               	btfss	___xxtofl@val+3,7
  2399     0668  2E6A               	goto	u1061
  2400     0669  2E6B               	goto	u1060
  2401     066A                     u1061:
  2402     066A  2E7B               	goto	l1631
  2403     066B                     u1060:
  2404     066B                     l1629:
  2405     066B  0976               	comf	___xxtofl@val,w
  2406     066C  00B8               	movwf	___xxtofl@arg
  2407     066D  0977               	comf	___xxtofl@val+1,w
  2408     066E  00B9               	movwf	___xxtofl@arg+1
  2409     066F  0978               	comf	___xxtofl@val+2,w
  2410     0670  00BA               	movwf	___xxtofl@arg+2
  2411     0671  0979               	comf	___xxtofl@val+3,w
  2412     0672  00BB               	movwf	___xxtofl@arg+3
  2413     0673  0AB8               	incf	___xxtofl@arg,f
  2414     0674  1903               	skipnz
  2415     0675  0AB9               	incf	___xxtofl@arg+1,f
  2416     0676  1903               	skipnz
  2417     0677  0ABA               	incf	___xxtofl@arg+2,f
  2418     0678  1903               	skipnz
  2419     0679  0ABB               	incf	___xxtofl@arg+3,f
  2420     067A  2E83               	goto	l792
  2421     067B                     l1631:
  2422     067B  0879               	movf	___xxtofl@val+3,w
  2423     067C  00BB               	movwf	___xxtofl@arg+3
  2424     067D  0878               	movf	___xxtofl@val+2,w
  2425     067E  00BA               	movwf	___xxtofl@arg+2
  2426     067F  0877               	movf	___xxtofl@val+1,w
  2427     0680  00B9               	movwf	___xxtofl@arg+1
  2428     0681  0876               	movf	___xxtofl@val,w
  2429     0682  00B8               	movwf	___xxtofl@arg
  2430     0683                     l792:
  2431     0683  0879               	movf	___xxtofl@val+3,w
  2432     0684  0478               	iorwf	___xxtofl@val+2,w
  2433     0685  0477               	iorwf	___xxtofl@val+1,w
  2434     0686  0476               	iorwf	___xxtofl@val,w
  2435     0687  1D03               	skipz
  2436     0688  2E8A               	goto	u1071
  2437     0689  2E8B               	goto	u1070
  2438     068A                     u1071:
  2439     068A  2E94               	goto	l1637
  2440     068B                     u1070:
  2441     068B                     l1633:
  2442     068B  3000               	movlw	0
  2443     068C  00F9               	movwf	?___xxtofl+3
  2444     068D  3000               	movlw	0
  2445     068E  00F8               	movwf	?___xxtofl+2
  2446     068F  3000               	movlw	0
  2447     0690  00F7               	movwf	?___xxtofl+1
  2448     0691  3000               	movlw	0
  2449     0692  00F6               	movwf	?___xxtofl
  2450     0693  2F18               	goto	l794
  2451     0694                     l1637:
  2452     0694  3096               	movlw	150
  2453     0695  00B7               	movwf	___xxtofl@exp
  2454     0696  2EA4               	goto	l1641
  2455     0697                     l1639:
  2456     0697  3001               	movlw	1
  2457     0698  00FA               	movwf	??___xxtofl
  2458     0699  087A               	movf	??___xxtofl,w
  2459     069A  07B7               	addwf	___xxtofl@exp,f
  2460     069B  3001               	movlw	1
  2461     069C                     u1085:
  2462     069C  1003               	clrc
  2463     069D  0CBB               	rrf	___xxtofl@arg+3,f
  2464     069E  0CBA               	rrf	___xxtofl@arg+2,f
  2465     069F  0CB9               	rrf	___xxtofl@arg+1,f
  2466     06A0  0CB8               	rrf	___xxtofl@arg,f
  2467     06A1  3EFF               	addlw	-1
  2468     06A2  1D03               	skipz
  2469     06A3  2E9C               	goto	u1085
  2470     06A4                     l1641:
  2471     06A4  30FE               	movlw	254
  2472     06A5  053B               	andwf	___xxtofl@arg+3,w
  2473     06A6  1D03               	btfss	3,2
  2474     06A7  2EA9               	goto	u1091
  2475     06A8  2EAA               	goto	u1090
  2476     06A9                     u1091:
  2477     06A9  2E97               	goto	l1639
  2478     06AA                     u1090:
  2479     06AA  2EC6               	goto	l798
  2480     06AB                     l1643:
  2481     06AB  3001               	movlw	1
  2482     06AC  00FA               	movwf	??___xxtofl
  2483     06AD  087A               	movf	??___xxtofl,w
  2484     06AE  07B7               	addwf	___xxtofl@exp,f
  2485     06AF                     l1645:
  2486     06AF  3001               	movlw	1
  2487     06B0  07B8               	addwf	___xxtofl@arg,f
  2488     06B1  3000               	movlw	0
  2489     06B2  1803               	skipnc
  2490     06B3  3001               	movlw	1
  2491     06B4  07B9               	addwf	___xxtofl@arg+1,f
  2492     06B5  3000               	movlw	0
  2493     06B6  1803               	skipnc
  2494     06B7  3001               	movlw	1
  2495     06B8  07BA               	addwf	___xxtofl@arg+2,f
  2496     06B9  3000               	movlw	0
  2497     06BA  1803               	skipnc
  2498     06BB  3001               	movlw	1
  2499     06BC  07BB               	addwf	___xxtofl@arg+3,f
  2500     06BD                     l1647:
  2501     06BD  3001               	movlw	1
  2502     06BE                     u1105:
  2503     06BE  1003               	clrc
  2504     06BF  0CBB               	rrf	___xxtofl@arg+3,f
  2505     06C0  0CBA               	rrf	___xxtofl@arg+2,f
  2506     06C1  0CB9               	rrf	___xxtofl@arg+1,f
  2507     06C2  0CB8               	rrf	___xxtofl@arg,f
  2508     06C3  3EFF               	addlw	-1
  2509     06C4  1D03               	skipz
  2510     06C5  2EBE               	goto	u1105
  2511     06C6                     l798:
  2512     06C6  30FF               	movlw	255
  2513     06C7  053B               	andwf	___xxtofl@arg+3,w
  2514     06C8  1D03               	btfss	3,2
  2515     06C9  2ECB               	goto	u1111
  2516     06CA  2ECC               	goto	u1110
  2517     06CB                     u1111:
  2518     06CB  2EAB               	goto	l1643
  2519     06CC                     u1110:
  2520     06CC  2ED8               	goto	l1651
  2521     06CD                     l1649:
  2522     06CD  3001               	movlw	1
  2523     06CE  02B7               	subwf	___xxtofl@exp,f
  2524     06CF  3001               	movlw	1
  2525     06D0  00FA               	movwf	??___xxtofl
  2526     06D1                     u1125:
  2527     06D1  1003               	clrc
  2528     06D2  0DB8               	rlf	___xxtofl@arg,f
  2529     06D3  0DB9               	rlf	___xxtofl@arg+1,f
  2530     06D4  0DBA               	rlf	___xxtofl@arg+2,f
  2531     06D5  0DBB               	rlf	___xxtofl@arg+3,f
  2532     06D6  0BFA               	decfsz	??___xxtofl,f
  2533     06D7  2ED1               	goto	u1125
  2534     06D8                     l1651:
  2535     06D8  1BBA               	btfsc	___xxtofl@arg+2,7
  2536     06D9  2EDB               	goto	u1131
  2537     06DA  2EDC               	goto	u1130
  2538     06DB                     u1131:
  2539     06DB  2EE2               	goto	l805
  2540     06DC                     u1130:
  2541     06DC                     l1653:
  2542     06DC  3002               	movlw	2
  2543     06DD  0237               	subwf	___xxtofl@exp,w
  2544     06DE  1803               	skipnc
  2545     06DF  2EE1               	goto	u1141
  2546     06E0  2EE2               	goto	u1140
  2547     06E1                     u1141:
  2548     06E1  2ECD               	goto	l1649
  2549     06E2                     u1140:
  2550     06E2                     l805:
  2551     06E2  1837               	btfsc	___xxtofl@exp,0
  2552     06E3  2EE5               	goto	u1151
  2553     06E4  2EE6               	goto	u1150
  2554     06E5                     u1151:
  2555     06E5  2EEE               	goto	l806
  2556     06E6                     u1150:
  2557     06E6                     l1655:
  2558     06E6  30FF               	movlw	255
  2559     06E7  05B8               	andwf	___xxtofl@arg,f
  2560     06E8  30FF               	movlw	255
  2561     06E9  05B9               	andwf	___xxtofl@arg+1,f
  2562     06EA  307F               	movlw	127
  2563     06EB  05BA               	andwf	___xxtofl@arg+2,f
  2564     06EC  30FF               	movlw	255
  2565     06ED  05BB               	andwf	___xxtofl@arg+3,f
  2566     06EE                     l806:
  2567     06EE  1003               	clrc
  2568     06EF  0CB7               	rrf	___xxtofl@exp,f
  2569     06F0                     l1657:
  2570     06F0  0837               	movf	___xxtofl@exp,w
  2571     06F1  00FA               	movwf	??___xxtofl
  2572     06F2  01FB               	clrf	??___xxtofl+1
  2573     06F3  01FC               	clrf	??___xxtofl+2
  2574     06F4  01FD               	clrf	??___xxtofl+3
  2575     06F5  3018               	movlw	24
  2576     06F6                     u1165:
  2577     06F6  1003               	clrc
  2578     06F7  0DFA               	rlf	??___xxtofl,f
  2579     06F8  0DFB               	rlf	??___xxtofl+1,f
  2580     06F9  0DFC               	rlf	??___xxtofl+2,f
  2581     06FA  0DFD               	rlf	??___xxtofl+3,f
  2582     06FB                     u1160:
  2583     06FB  3EFF               	addlw	-1
  2584     06FC  1D03               	skipz
  2585     06FD  2EF6               	goto	u1165
  2586     06FE  087A               	movf	??___xxtofl,w
  2587     06FF  04B8               	iorwf	___xxtofl@arg,f
  2588     0700  087B               	movf	??___xxtofl+1,w
  2589     0701  04B9               	iorwf	___xxtofl@arg+1,f
  2590     0702  087C               	movf	??___xxtofl+2,w
  2591     0703  04BA               	iorwf	___xxtofl@arg+2,f
  2592     0704  087D               	movf	??___xxtofl+3,w
  2593     0705  04BB               	iorwf	___xxtofl@arg+3,f
  2594     0706                     l1659:
  2595     0706  0836               	movf	___xxtofl@sign,w
  2596     0707  1903               	btfsc	3,2
  2597     0708  2F0A               	goto	u1171
  2598     0709  2F0B               	goto	u1170
  2599     070A                     u1171:
  2600     070A  2F10               	goto	l1665
  2601     070B                     u1170:
  2602     070B                     l1661:
  2603     070B  1FF9               	btfss	___xxtofl@val+3,7
  2604     070C  2F0E               	goto	u1181
  2605     070D  2F0F               	goto	u1180
  2606     070E                     u1181:
  2607     070E  2F10               	goto	l1665
  2608     070F                     u1180:
  2609     070F                     l1663:
  2610     070F  17BB               	bsf	___xxtofl@arg+3,7
  2611     0710                     l1665:
  2612     0710  083B               	movf	___xxtofl@arg+3,w
  2613     0711  00F9               	movwf	?___xxtofl+3
  2614     0712  083A               	movf	___xxtofl@arg+2,w
  2615     0713  00F8               	movwf	?___xxtofl+2
  2616     0714  0839               	movf	___xxtofl@arg+1,w
  2617     0715  00F7               	movwf	?___xxtofl+1
  2618     0716  0838               	movf	___xxtofl@arg,w
  2619     0717  00F6               	movwf	?___xxtofl
  2620     0718                     l794:
  2621     0718  0008               	return
  2622     0719                     __end_of___xxtofl:
  2623                           
  2624                           	psect	text10
  2625     035A                     __ptext10:	
  2626 ;; *************** function _Lcd_Write_String_4bits *****************
  2627 ;; Defined at:
  2628 ;;		line 99 in file "configLCD_4bits.c"
  2629 ;; Parameters:    Size  Location     Type
  2630 ;;  a               1    wreg     PTR unsigned char 
  2631 ;;		 -> distanciaLCD(16), 
  2632 ;; Auto vars:     Size  Location     Type
  2633 ;;  a               1    8[COMMON] PTR unsigned char 
  2634 ;;		 -> distanciaLCD(16), 
  2635 ;;  i               2    6[COMMON] int 
  2636 ;; Return value:  Size  Location     Type
  2637 ;;                  1    wreg      void 
  2638 ;; Registers used:
  2639 ;;		wreg, fsr0l, fsr0h, status,2, status,0, pclath, cstack
  2640 ;; Tracked objects:
  2641 ;;		On entry : 0/0
  2642 ;;		On exit  : 0/0
  2643 ;;		Unchanged: 0/0
  2644 ;; Data sizes:     COMMON   BANK0   BANK1   BANK3   BANK2
  2645 ;;      Params:         0       0       0       0       0
  2646 ;;      Locals:         3       0       0       0       0
  2647 ;;      Temps:          1       0       0       0       0
  2648 ;;      Totals:         4       0       0       0       0
  2649 ;;Total ram usage:        4 bytes
  2650 ;; Hardware stack levels used: 1
  2651 ;; Hardware stack levels required when called: 2
  2652 ;; This function calls:
  2653 ;;		_Lcd_Write_Char_4bits
  2654 ;; This function is called by:
  2655 ;;		_main
  2656 ;; This function uses a non-reentrant model
  2657 ;;
  2658                           
  2659     035A                     _Lcd_Write_String_4bits:	
  2660                           ;psect for function _Lcd_Write_String_4bits
  2661                           
  2662                           
  2663                           ;incstack = 0
  2664                           ; Regs used in _Lcd_Write_String_4bits: [wreg-fsr0h+status,2+status,0+pclath+cstack]
  2665                           ;Lcd_Write_String_4bits@a stored from wreg
  2666     035A  00F8               	movwf	Lcd_Write_String_4bits@a
  2667     035B                     l1537:
  2668                           
  2669                           ;configLCD_4bits.c: 100:     int i;;configLCD_4bits.c: 101:     for (i = 0; a[i] != '\0'
      +                          ; i++)
  2670     035B  01F6               	clrf	Lcd_Write_String_4bits@i
  2671     035C  01F7               	clrf	Lcd_Write_String_4bits@i+1
  2672     035D  2B6F               	goto	l1543
  2673     035E                     l1539:
  2674                           
  2675                           ;configLCD_4bits.c: 102:         Lcd_Write_Char_4bits(a[i]);
  2676     035E  0876               	movf	Lcd_Write_String_4bits@i,w
  2677     035F  0778               	addwf	Lcd_Write_String_4bits@a,w
  2678     0360  00F5               	movwf	??_Lcd_Write_String_4bits
  2679     0361  0875               	movf	??_Lcd_Write_String_4bits,w
  2680     0362  0084               	movwf	4
  2681     0363  0800               	movf	0,w
  2682     0364  120A  118A  23F3  120A  118A  	fcall	_Lcd_Write_Char_4bits
  2683     0369                     l1541:
  2684     0369  3001               	movlw	1
  2685     036A  07F6               	addwf	Lcd_Write_String_4bits@i,f
  2686     036B  1803               	skipnc
  2687     036C  0AF7               	incf	Lcd_Write_String_4bits@i+1,f
  2688     036D  3000               	movlw	0
  2689     036E  07F7               	addwf	Lcd_Write_String_4bits@i+1,f
  2690     036F                     l1543:
  2691     036F  0876               	movf	Lcd_Write_String_4bits@i,w
  2692     0370  0778               	addwf	Lcd_Write_String_4bits@a,w
  2693     0371  00F5               	movwf	??_Lcd_Write_String_4bits
  2694     0372  0875               	movf	??_Lcd_Write_String_4bits,w
  2695     0373  0084               	movwf	4
  2696     0374  1383               	bcf	3,7	;select IRP bank0
  2697     0375  0800               	movf	0,w
  2698     0376  1D03               	btfss	3,2
  2699     0377  2B79               	goto	u971
  2700     0378  2B7A               	goto	u970
  2701     0379                     u971:
  2702     0379  2B5E               	goto	l1539
  2703     037A                     u970:
  2704     037A                     l99:
  2705     037A  0008               	return
  2706     037B                     __end_of_Lcd_Write_String_4bits:
  2707                           
  2708                           	psect	text11
  2709     03F3                     __ptext11:	
  2710 ;; *************** function _Lcd_Write_Char_4bits *****************
  2711 ;; Defined at:
  2712 ;;		line 84 in file "configLCD_4bits.c"
  2713 ;; Parameters:    Size  Location     Type
  2714 ;;  a               1    wreg     unsigned char 
  2715 ;; Auto vars:     Size  Location     Type
  2716 ;;  a               1    4[COMMON] unsigned char 
  2717 ;;  y               1    3[COMMON] unsigned char 
  2718 ;;  temp            1    2[COMMON] unsigned char 
  2719 ;; Return value:  Size  Location     Type
  2720 ;;                  1    wreg      void 
  2721 ;; Registers used:
  2722 ;;		wreg, status,2, status,0, pclath, cstack
  2723 ;; Tracked objects:
  2724 ;;		On entry : 0/0
  2725 ;;		On exit  : 0/0
  2726 ;;		Unchanged: 0/0
  2727 ;; Data sizes:     COMMON   BANK0   BANK1   BANK3   BANK2
  2728 ;;      Params:         0       0       0       0       0
  2729 ;;      Locals:         3       0       0       0       0
  2730 ;;      Temps:          1       0       0       0       0
  2731 ;;      Totals:         4       0       0       0       0
  2732 ;;Total ram usage:        4 bytes
  2733 ;; Hardware stack levels used: 1
  2734 ;; Hardware stack levels required when called: 1
  2735 ;; This function calls:
  2736 ;;		_Lcd_Port_4bits
  2737 ;; This function is called by:
  2738 ;;		_Lcd_Write_String_4bits
  2739 ;; This function uses a non-reentrant model
  2740 ;;
  2741                           
  2742     03F3                     _Lcd_Write_Char_4bits:	
  2743                           ;psect for function _Lcd_Write_Char_4bits
  2744                           
  2745                           
  2746                           ;incstack = 0
  2747                           ; Regs used in _Lcd_Write_Char_4bits: [wreg+status,2+status,0+pclath+cstack]
  2748                           ;Lcd_Write_Char_4bits@a stored from wreg
  2749     03F3  00F4               	movwf	Lcd_Write_Char_4bits@a
  2750     03F4                     l1419:
  2751                           
  2752                           ;configLCD_4bits.c: 85:     char temp, y;;configLCD_4bits.c: 86:     temp = a & 0x0F;
  2753     03F4  0874               	movf	Lcd_Write_Char_4bits@a,w
  2754     03F5  390F               	andlw	15
  2755     03F6  00F2               	movwf	Lcd_Write_Char_4bits@temp
  2756                           
  2757                           ;configLCD_4bits.c: 87:     y = a & 0xF0;
  2758     03F7  0874               	movf	Lcd_Write_Char_4bits@a,w
  2759     03F8  39F0               	andlw	240
  2760     03F9  00F3               	movwf	Lcd_Write_Char_4bits@y
  2761     03FA                     l1421:
  2762                           
  2763                           ;configLCD_4bits.c: 88:     PORTDbits.RD2 = 1;
  2764     03FA  1283               	bcf	3,5	;RP0=0, select bank0
  2765     03FB  1303               	bcf	3,6	;RP1=0, select bank0
  2766     03FC  1508               	bsf	8,2	;volatile
  2767     03FD                     l1423:
  2768                           
  2769                           ;configLCD_4bits.c: 89:     Lcd_Port_4bits(y >> 4);
  2770     03FD  0873               	movf	Lcd_Write_Char_4bits@y,w
  2771     03FE  00F1               	movwf	??_Lcd_Write_Char_4bits
  2772     03FF  3004               	movlw	4
  2773     0400                     u785:
  2774     0400  1003               	clrc
  2775     0401  0CF1               	rrf	??_Lcd_Write_Char_4bits,f
  2776     0402  3EFF               	addlw	-1
  2777     0403  1D03               	skipz
  2778     0404  2C00               	goto	u785
  2779     0405  0871               	movf	??_Lcd_Write_Char_4bits,w
  2780     0406  120A  118A  237B  120A  118A  	fcall	_Lcd_Port_4bits
  2781     040B                     l1425:
  2782                           
  2783                           ;configLCD_4bits.c: 90:     PORTDbits.RD3 = 1;
  2784     040B  1283               	bcf	3,5	;RP0=0, select bank0
  2785     040C  1303               	bcf	3,6	;RP1=0, select bank0
  2786     040D  1588               	bsf	8,3	;volatile
  2787     040E                     l1427:
  2788                           
  2789                           ;configLCD_4bits.c: 91:     _delay((unsigned long)((40)*(8000000/4000000.0)));
  2790     040E  301A               	movlw	26
  2791     040F  00F1               	movwf	??_Lcd_Write_Char_4bits
  2792     0410                     u1257:
  2793     0410  0BF1               	decfsz	??_Lcd_Write_Char_4bits,f
  2794     0411  2C10               	goto	u1257
  2795     0412  0000               	nop
  2796     0413                     l1429:
  2797                           
  2798                           ;configLCD_4bits.c: 92:     PORTDbits.RD3 = 0;
  2799     0413  1283               	bcf	3,5	;RP0=0, select bank0
  2800     0414  1303               	bcf	3,6	;RP1=0, select bank0
  2801     0415  1188               	bcf	8,3	;volatile
  2802     0416                     l1431:
  2803                           
  2804                           ;configLCD_4bits.c: 93:     Lcd_Port_4bits(temp);
  2805     0416  0872               	movf	Lcd_Write_Char_4bits@temp,w
  2806     0417  120A  118A  237B  120A  118A  	fcall	_Lcd_Port_4bits
  2807     041C                     l1433:
  2808                           
  2809                           ;configLCD_4bits.c: 94:     PORTDbits.RD3 = 1;
  2810     041C  1283               	bcf	3,5	;RP0=0, select bank0
  2811     041D  1303               	bcf	3,6	;RP1=0, select bank0
  2812     041E  1588               	bsf	8,3	;volatile
  2813     041F                     l1435:
  2814                           
  2815                           ;configLCD_4bits.c: 95:     _delay((unsigned long)((40)*(8000000/4000000.0)));
  2816     041F  301A               	movlw	26
  2817     0420  00F1               	movwf	??_Lcd_Write_Char_4bits
  2818     0421                     u1267:
  2819     0421  0BF1               	decfsz	??_Lcd_Write_Char_4bits,f
  2820     0422  2C21               	goto	u1267
  2821     0423  0000               	nop
  2822     0424                     l1437:
  2823                           
  2824                           ;configLCD_4bits.c: 96:     PORTDbits.RD3 = 0;
  2825     0424  1283               	bcf	3,5	;RP0=0, select bank0
  2826     0425  1303               	bcf	3,6	;RP1=0, select bank0
  2827     0426  1188               	bcf	8,3	;volatile
  2828     0427                     l93:
  2829     0427  0008               	return
  2830     0428                     __end_of_Lcd_Write_Char_4bits:
  2831                           
  2832                           	psect	text12
  2833     04DE                     __ptext12:	
  2834 ;; *************** function _Lcd_Set_Cursor_4bits *****************
  2835 ;; Defined at:
  2836 ;;		line 49 in file "configLCD_4bits.c"
  2837 ;; Parameters:    Size  Location     Type
  2838 ;;  a               1    wreg     unsigned char 
  2839 ;;  b               1    4[COMMON] unsigned char 
  2840 ;; Auto vars:     Size  Location     Type
  2841 ;;  a               1    6[COMMON] unsigned char 
  2842 ;;  temp            1    9[COMMON] unsigned char 
  2843 ;;  y               1    8[COMMON] unsigned char 
  2844 ;;  z               1    7[COMMON] unsigned char 
  2845 ;; Return value:  Size  Location     Type
  2846 ;;                  1    wreg      void 
  2847 ;; Registers used:
  2848 ;;		wreg, status,2, status,0, pclath, cstack
  2849 ;; Tracked objects:
  2850 ;;		On entry : 0/0
  2851 ;;		On exit  : 0/0
  2852 ;;		Unchanged: 0/0
  2853 ;; Data sizes:     COMMON   BANK0   BANK1   BANK3   BANK2
  2854 ;;      Params:         1       0       0       0       0
  2855 ;;      Locals:         4       0       0       0       0
  2856 ;;      Temps:          1       0       0       0       0
  2857 ;;      Totals:         6       0       0       0       0
  2858 ;;Total ram usage:        6 bytes
  2859 ;; Hardware stack levels used: 1
  2860 ;; Hardware stack levels required when called: 2
  2861 ;; This function calls:
  2862 ;;		_Lcd_Cmd_4bits
  2863 ;; This function is called by:
  2864 ;;		_main
  2865 ;; This function uses a non-reentrant model
  2866 ;;
  2867                           
  2868     04DE                     _Lcd_Set_Cursor_4bits:	
  2869                           ;psect for function _Lcd_Set_Cursor_4bits
  2870                           
  2871                           
  2872                           ;incstack = 0
  2873                           ; Regs used in _Lcd_Set_Cursor_4bits: [wreg+status,2+status,0+pclath+cstack]
  2874                           ;Lcd_Set_Cursor_4bits@a stored from wreg
  2875     04DE  00F6               	movwf	Lcd_Set_Cursor_4bits@a
  2876     04DF                     l1517:
  2877                           
  2878                           ;configLCD_4bits.c: 50:     char temp, z, y;;configLCD_4bits.c: 51:     if (a == 1) {
  2879     04DF  0376               	decf	Lcd_Set_Cursor_4bits@a,w
  2880     04E0  1D03               	btfss	3,2
  2881     04E1  2CE3               	goto	u931
  2882     04E2  2CE4               	goto	u930
  2883     04E3                     u931:
  2884     04E3  2D01               	goto	l1527
  2885     04E4                     u930:
  2886     04E4                     l1519:
  2887                           
  2888                           ;configLCD_4bits.c: 52:         temp = 0x80 + b - 1;
  2889     04E4  0874               	movf	Lcd_Set_Cursor_4bits@b,w
  2890     04E5  3E7F               	addlw	127
  2891     04E6  00F9               	movwf	Lcd_Set_Cursor_4bits@temp
  2892                           
  2893                           ;configLCD_4bits.c: 53:         z = temp >> 4;
  2894     04E7  0879               	movf	Lcd_Set_Cursor_4bits@temp,w
  2895     04E8  00F5               	movwf	??_Lcd_Set_Cursor_4bits
  2896     04E9  3004               	movlw	4
  2897     04EA                     u945:
  2898     04EA  1003               	clrc
  2899     04EB  0CF5               	rrf	??_Lcd_Set_Cursor_4bits,f
  2900     04EC  3EFF               	addlw	-1
  2901     04ED  1D03               	skipz
  2902     04EE  2CEA               	goto	u945
  2903     04EF  0875               	movf	??_Lcd_Set_Cursor_4bits,w
  2904     04F0  00F7               	movwf	Lcd_Set_Cursor_4bits@z
  2905     04F1                     l1521:
  2906                           
  2907                           ;configLCD_4bits.c: 54:         y = temp & 0x0F;
  2908     04F1  0879               	movf	Lcd_Set_Cursor_4bits@temp,w
  2909     04F2  390F               	andlw	15
  2910     04F3  00F8               	movwf	Lcd_Set_Cursor_4bits@y
  2911     04F4                     l1523:
  2912                           
  2913                           ;configLCD_4bits.c: 55:         Lcd_Cmd_4bits(z);
  2914     04F4  0877               	movf	Lcd_Set_Cursor_4bits@z,w
  2915     04F5  120A  118A  2340  120A  118A  	fcall	_Lcd_Cmd_4bits
  2916     04FA                     l1525:
  2917                           
  2918                           ;configLCD_4bits.c: 56:         Lcd_Cmd_4bits(y);
  2919     04FA  0878               	movf	Lcd_Set_Cursor_4bits@y,w
  2920     04FB  120A  118A  2340  120A  118A  	fcall	_Lcd_Cmd_4bits
  2921                           
  2922                           ;configLCD_4bits.c: 57:     } else if (a == 2) {
  2923     0500  2D23               	goto	l87
  2924     0501                     l1527:
  2925     0501  3002               	movlw	2
  2926     0502  0676               	xorwf	Lcd_Set_Cursor_4bits@a,w
  2927     0503  1D03               	btfss	3,2
  2928     0504  2D06               	goto	u951
  2929     0505  2D07               	goto	u950
  2930     0506                     u951:
  2931     0506  2D23               	goto	l87
  2932     0507                     u950:
  2933     0507                     l1529:
  2934                           
  2935                           ;configLCD_4bits.c: 58:         temp = 0xC0 + b - 1;
  2936     0507  0874               	movf	Lcd_Set_Cursor_4bits@b,w
  2937     0508  3EBF               	addlw	191
  2938     0509  00F9               	movwf	Lcd_Set_Cursor_4bits@temp
  2939                           
  2940                           ;configLCD_4bits.c: 59:         z = temp >> 4;
  2941     050A  0879               	movf	Lcd_Set_Cursor_4bits@temp,w
  2942     050B  00F5               	movwf	??_Lcd_Set_Cursor_4bits
  2943     050C  3004               	movlw	4
  2944     050D                     u965:
  2945     050D  1003               	clrc
  2946     050E  0CF5               	rrf	??_Lcd_Set_Cursor_4bits,f
  2947     050F  3EFF               	addlw	-1
  2948     0510  1D03               	skipz
  2949     0511  2D0D               	goto	u965
  2950     0512  0875               	movf	??_Lcd_Set_Cursor_4bits,w
  2951     0513  00F7               	movwf	Lcd_Set_Cursor_4bits@z
  2952     0514                     l1531:
  2953                           
  2954                           ;configLCD_4bits.c: 60:         y = temp & 0x0F;
  2955     0514  0879               	movf	Lcd_Set_Cursor_4bits@temp,w
  2956     0515  390F               	andlw	15
  2957     0516  00F8               	movwf	Lcd_Set_Cursor_4bits@y
  2958     0517                     l1533:
  2959                           
  2960                           ;configLCD_4bits.c: 61:         Lcd_Cmd_4bits(z);
  2961     0517  0877               	movf	Lcd_Set_Cursor_4bits@z,w
  2962     0518  120A  118A  2340  120A  118A  	fcall	_Lcd_Cmd_4bits
  2963     051D                     l1535:
  2964                           
  2965                           ;configLCD_4bits.c: 62:         Lcd_Cmd_4bits(y);
  2966     051D  0878               	movf	Lcd_Set_Cursor_4bits@y,w
  2967     051E  120A  118A  2340  120A  118A  	fcall	_Lcd_Cmd_4bits
  2968     0523                     l87:
  2969     0523  0008               	return
  2970     0524                     __end_of_Lcd_Set_Cursor_4bits:
  2971                           
  2972                           	psect	text13
  2973     0326                     __ptext13:	
  2974 ;; *************** function _Lcd_Clear_4bits *****************
  2975 ;; Defined at:
  2976 ;;		line 44 in file "configLCD_4bits.c"
  2977 ;; Parameters:    Size  Location     Type
  2978 ;;		None
  2979 ;; Auto vars:     Size  Location     Type
  2980 ;;		None
  2981 ;; Return value:  Size  Location     Type
  2982 ;;                  1    wreg      void 
  2983 ;; Registers used:
  2984 ;;		wreg, status,2, status,0, pclath, cstack
  2985 ;; Tracked objects:
  2986 ;;		On entry : 0/0
  2987 ;;		On exit  : 0/0
  2988 ;;		Unchanged: 0/0
  2989 ;; Data sizes:     COMMON   BANK0   BANK1   BANK3   BANK2
  2990 ;;      Params:         0       0       0       0       0
  2991 ;;      Locals:         0       0       0       0       0
  2992 ;;      Temps:          0       0       0       0       0
  2993 ;;      Totals:         0       0       0       0       0
  2994 ;;Total ram usage:        0 bytes
  2995 ;; Hardware stack levels used: 1
  2996 ;; Hardware stack levels required when called: 2
  2997 ;; This function calls:
  2998 ;;		_Lcd_Cmd_4bits
  2999 ;; This function is called by:
  3000 ;;		_main
  3001 ;; This function uses a non-reentrant model
  3002 ;;
  3003                           
  3004     0326                     _Lcd_Clear_4bits:	
  3005                           ;psect for function _Lcd_Clear_4bits
  3006                           
  3007     0326                     l1515:	
  3008                           ;incstack = 0
  3009                           ; Regs used in _Lcd_Clear_4bits: [wreg+status,2+status,0+pclath+cstack]
  3010                           
  3011                           
  3012                           ;configLCD_4bits.c: 45:     Lcd_Cmd_4bits(0);
  3013     0326  3000               	movlw	0
  3014     0327  120A  118A  2340  120A  118A  	fcall	_Lcd_Cmd_4bits
  3015                           
  3016                           ;configLCD_4bits.c: 46:     Lcd_Cmd_4bits(1);
  3017     032C  3001               	movlw	1
  3018     032D  120A  118A  2340  120A  118A  	fcall	_Lcd_Cmd_4bits
  3019     0332                     l81:
  3020     0332  0008               	return
  3021     0333                     __end_of_Lcd_Clear_4bits:
  3022                           
  3023                           	psect	text14
  3024     0340                     __ptext14:	
  3025 ;; *************** function _Lcd_Cmd_4bits *****************
  3026 ;; Defined at:
  3027 ;;		line 36 in file "configLCD_4bits.c"
  3028 ;; Parameters:    Size  Location     Type
  3029 ;;  a               1    wreg     unsigned char 
  3030 ;; Auto vars:     Size  Location     Type
  3031 ;;  a               1    3[COMMON] unsigned char 
  3032 ;; Return value:  Size  Location     Type
  3033 ;;                  1    wreg      void 
  3034 ;; Registers used:
  3035 ;;		wreg, status,2, status,0, pclath, cstack
  3036 ;; Tracked objects:
  3037 ;;		On entry : 0/0
  3038 ;;		On exit  : 0/0
  3039 ;;		Unchanged: 0/0
  3040 ;; Data sizes:     COMMON   BANK0   BANK1   BANK3   BANK2
  3041 ;;      Params:         0       0       0       0       0
  3042 ;;      Locals:         1       0       0       0       0
  3043 ;;      Temps:          2       0       0       0       0
  3044 ;;      Totals:         3       0       0       0       0
  3045 ;;Total ram usage:        3 bytes
  3046 ;; Hardware stack levels used: 1
  3047 ;; Hardware stack levels required when called: 1
  3048 ;; This function calls:
  3049 ;;		_Lcd_Port_4bits
  3050 ;; This function is called by:
  3051 ;;		_Lcd_Clear_4bits
  3052 ;;		_Lcd_Set_Cursor_4bits
  3053 ;;		_Lcd_Init_4bits
  3054 ;;		_Lcd_Shift_Right_4bits
  3055 ;;		_Lcd_Shift_Left_4bits
  3056 ;; This function uses a non-reentrant model
  3057 ;;
  3058                           
  3059     0340                     _Lcd_Cmd_4bits:	
  3060                           ;psect for function _Lcd_Cmd_4bits
  3061                           
  3062                           
  3063                           ;incstack = 0
  3064                           ; Regs used in _Lcd_Cmd_4bits: [wreg+status,2+status,0+pclath+cstack]
  3065                           ;Lcd_Cmd_4bits@a stored from wreg
  3066     0340  00F3               	movwf	Lcd_Cmd_4bits@a
  3067     0341                     l1355:
  3068                           
  3069                           ;configLCD_4bits.c: 37:     PORTDbits.RD2 = 0;
  3070     0341  1283               	bcf	3,5	;RP0=0, select bank0
  3071     0342  1303               	bcf	3,6	;RP1=0, select bank0
  3072     0343  1108               	bcf	8,2	;volatile
  3073     0344                     l1357:
  3074                           
  3075                           ;configLCD_4bits.c: 38:     Lcd_Port_4bits(a);
  3076     0344  0873               	movf	Lcd_Cmd_4bits@a,w
  3077     0345  120A  118A  237B  120A  118A  	fcall	_Lcd_Port_4bits
  3078     034A                     l1359:
  3079                           
  3080                           ;configLCD_4bits.c: 39:     PORTDbits.RD3 = 1;
  3081     034A  1283               	bcf	3,5	;RP0=0, select bank0
  3082     034B  1303               	bcf	3,6	;RP1=0, select bank0
  3083     034C  1588               	bsf	8,3	;volatile
  3084     034D                     l1361:
  3085                           
  3086                           ;configLCD_4bits.c: 40:     _delay((unsigned long)((4)*(8000000/4000.0)));
  3087     034D  300B               	movlw	11
  3088     034E  00F2               	movwf	??_Lcd_Cmd_4bits+1
  3089     034F  3062               	movlw	98
  3090     0350  00F1               	movwf	??_Lcd_Cmd_4bits
  3091     0351                     u1277:
  3092     0351  0BF1               	decfsz	??_Lcd_Cmd_4bits,f
  3093     0352  2B51               	goto	u1277
  3094     0353  0BF2               	decfsz	??_Lcd_Cmd_4bits+1,f
  3095     0354  2B51               	goto	u1277
  3096     0355  0000               	nop
  3097     0356                     l1363:
  3098                           
  3099                           ;configLCD_4bits.c: 41:     PORTDbits.RD3 = 0;
  3100     0356  1283               	bcf	3,5	;RP0=0, select bank0
  3101     0357  1303               	bcf	3,6	;RP1=0, select bank0
  3102     0358  1188               	bcf	8,3	;volatile
  3103     0359                     l78:
  3104     0359  0008               	return
  3105     035A                     __end_of_Lcd_Cmd_4bits:
  3106                           
  3107                           	psect	text15
  3108     037B                     __ptext15:	
  3109 ;; *************** function _Lcd_Port_4bits *****************
  3110 ;; Defined at:
  3111 ;;		line 14 in file "configLCD_4bits.c"
  3112 ;; Parameters:    Size  Location     Type
  3113 ;;  a               1    wreg     unsigned char 
  3114 ;; Auto vars:     Size  Location     Type
  3115 ;;  a               1    0[COMMON] unsigned char 
  3116 ;; Return value:  Size  Location     Type
  3117 ;;                  1    wreg      void 
  3118 ;; Registers used:
  3119 ;;		wreg
  3120 ;; Tracked objects:
  3121 ;;		On entry : 0/0
  3122 ;;		On exit  : 0/0
  3123 ;;		Unchanged: 0/0
  3124 ;; Data sizes:     COMMON   BANK0   BANK1   BANK3   BANK2
  3125 ;;      Params:         0       0       0       0       0
  3126 ;;      Locals:         1       0       0       0       0
  3127 ;;      Temps:          0       0       0       0       0
  3128 ;;      Totals:         1       0       0       0       0
  3129 ;;Total ram usage:        1 bytes
  3130 ;; Hardware stack levels used: 1
  3131 ;; This function calls:
  3132 ;;		Nothing
  3133 ;; This function is called by:
  3134 ;;		_Lcd_Cmd_4bits
  3135 ;;		_Lcd_Init_4bits
  3136 ;;		_Lcd_Write_Char_4bits
  3137 ;; This function uses a non-reentrant model
  3138 ;;
  3139                           
  3140     037B                     _Lcd_Port_4bits:	
  3141                           ;psect for function _Lcd_Port_4bits
  3142                           
  3143                           
  3144                           ;incstack = 0
  3145                           ; Regs used in _Lcd_Port_4bits: [wreg]
  3146                           ;Lcd_Port_4bits@a stored from wreg
  3147     037B  00F0               	movwf	Lcd_Port_4bits@a
  3148     037C                     l1345:
  3149                           
  3150                           ;configLCD_4bits.c: 15:     if (a & 1)
  3151     037C  1C70               	btfss	Lcd_Port_4bits@a,0
  3152     037D  2B7F               	goto	u641
  3153     037E  2B80               	goto	u640
  3154     037F                     u641:
  3155     037F  2B84               	goto	l67
  3156     0380                     u640:
  3157     0380                     l1347:
  3158                           
  3159                           ;configLCD_4bits.c: 16:         PORTDbits.RD4 = 1;
  3160     0380  1283               	bcf	3,5	;RP0=0, select bank0
  3161     0381  1303               	bcf	3,6	;RP1=0, select bank0
  3162     0382  1608               	bsf	8,4	;volatile
  3163     0383  2B87               	goto	l68
  3164     0384                     l67:	
  3165                           ;configLCD_4bits.c: 17:     else
  3166                           
  3167                           
  3168                           ;configLCD_4bits.c: 18:         PORTDbits.RD4 = 0;
  3169     0384  1283               	bcf	3,5	;RP0=0, select bank0
  3170     0385  1303               	bcf	3,6	;RP1=0, select bank0
  3171     0386  1208               	bcf	8,4	;volatile
  3172     0387                     l68:
  3173                           
  3174                           ;configLCD_4bits.c: 20:     if (a & 2)
  3175     0387  1CF0               	btfss	Lcd_Port_4bits@a,1
  3176     0388  2B8A               	goto	u651
  3177     0389  2B8B               	goto	u650
  3178     038A                     u651:
  3179     038A  2B8D               	goto	l69
  3180     038B                     u650:
  3181     038B                     l1349:
  3182                           
  3183                           ;configLCD_4bits.c: 21:         PORTDbits.RD5 = 1;
  3184     038B  1688               	bsf	8,5	;volatile
  3185     038C  2B8E               	goto	l70
  3186     038D                     l69:	
  3187                           ;configLCD_4bits.c: 22:     else
  3188                           
  3189                           
  3190                           ;configLCD_4bits.c: 23:         PORTDbits.RD5 = 0;
  3191     038D  1288               	bcf	8,5	;volatile
  3192     038E                     l70:
  3193                           
  3194                           ;configLCD_4bits.c: 25:     if (a & 4)
  3195     038E  1D70               	btfss	Lcd_Port_4bits@a,2
  3196     038F  2B91               	goto	u661
  3197     0390  2B92               	goto	u660
  3198     0391                     u661:
  3199     0391  2B94               	goto	l71
  3200     0392                     u660:
  3201     0392                     l1351:
  3202                           
  3203                           ;configLCD_4bits.c: 26:         PORTDbits.RD6 = 1;
  3204     0392  1708               	bsf	8,6	;volatile
  3205     0393  2B95               	goto	l72
  3206     0394                     l71:	
  3207                           ;configLCD_4bits.c: 27:     else
  3208                           
  3209                           
  3210                           ;configLCD_4bits.c: 28:         PORTDbits.RD6 = 0;
  3211     0394  1308               	bcf	8,6	;volatile
  3212     0395                     l72:
  3213                           
  3214                           ;configLCD_4bits.c: 30:     if (a & 8)
  3215     0395  1DF0               	btfss	Lcd_Port_4bits@a,3
  3216     0396  2B98               	goto	u671
  3217     0397  2B99               	goto	u670
  3218     0398                     u671:
  3219     0398  2B9B               	goto	l73
  3220     0399                     u670:
  3221     0399                     l1353:
  3222                           
  3223                           ;configLCD_4bits.c: 31:         PORTDbits.RD7 = 1;
  3224     0399  1788               	bsf	8,7	;volatile
  3225     039A  2B9C               	goto	l75
  3226     039B                     l73:	
  3227                           ;configLCD_4bits.c: 32:     else
  3228                           
  3229                           
  3230                           ;configLCD_4bits.c: 33:         PORTDbits.RD7 = 0;
  3231     039B  1388               	bcf	8,7	;volatile
  3232     039C                     l75:
  3233     039C  0008               	return
  3234     039D                     __end_of_Lcd_Port_4bits:
  3235                           
  3236                           	psect	text16
  3237     030F                     __ptext16:	
  3238 ;; *************** function _I2C_Master_Write *****************
  3239 ;; Defined at:
  3240 ;;		line 62 in file "configI2C.c"
  3241 ;; Parameters:    Size  Location     Type
  3242 ;;  d               2    0[COMMON] unsigned int 
  3243 ;; Auto vars:     Size  Location     Type
  3244 ;;		None
  3245 ;; Return value:  Size  Location     Type
  3246 ;;                  1    wreg      void 
  3247 ;; Registers used:
  3248 ;;		wreg, status,2, status,0, pclath, cstack
  3249 ;; Tracked objects:
  3250 ;;		On entry : 0/0
  3251 ;;		On exit  : 0/0
  3252 ;;		Unchanged: 0/0
  3253 ;; Data sizes:     COMMON   BANK0   BANK1   BANK3   BANK2
  3254 ;;      Params:         2       0       0       0       0
  3255 ;;      Locals:         0       0       0       0       0
  3256 ;;      Temps:          0       0       0       0       0
  3257 ;;      Totals:         2       0       0       0       0
  3258 ;;Total ram usage:        2 bytes
  3259 ;; Hardware stack levels used: 1
  3260 ;; Hardware stack levels required when called: 1
  3261 ;; This function calls:
  3262 ;;		_I2C_Master_Wait
  3263 ;; This function is called by:
  3264 ;;		_main
  3265 ;; This function uses a non-reentrant model
  3266 ;;
  3267                           
  3268     030F                     _I2C_Master_Write:	
  3269                           ;psect for function _I2C_Master_Write
  3270                           
  3271     030F                     l1495:	
  3272                           ;incstack = 0
  3273                           ; Regs used in _I2C_Master_Write: [wreg+status,2+status,0+pclath+cstack]
  3274                           
  3275                           
  3276                           ;configI2C.c: 62: void I2C_Master_Write(unsigned d);configI2C.c: 63: {;configI2C.c: 64: 
      +                              I2C_Master_Wait();
  3277     030F  120A  118A  2319  120A  118A  	fcall	_I2C_Master_Wait
  3278     0314                     l1497:
  3279                           
  3280                           ;configI2C.c: 65:     SSPBUF = d;
  3281     0314  0870               	movf	I2C_Master_Write@d,w
  3282     0315  1283               	bcf	3,5	;RP0=0, select bank0
  3283     0316  1303               	bcf	3,6	;RP1=0, select bank0
  3284     0317  0093               	movwf	19	;volatile
  3285     0318                     l47:
  3286     0318  0008               	return
  3287     0319                     __end_of_I2C_Master_Write:
  3288                           
  3289                           	psect	text17
  3290     0306                     __ptext17:	
  3291 ;; *************** function _I2C_Master_Stop *****************
  3292 ;; Defined at:
  3293 ;;		line 52 in file "configI2C.c"
  3294 ;; Parameters:    Size  Location     Type
  3295 ;;		None
  3296 ;; Auto vars:     Size  Location     Type
  3297 ;;		None
  3298 ;; Return value:  Size  Location     Type
  3299 ;;                  1    wreg      void 
  3300 ;; Registers used:
  3301 ;;		wreg, status,2, status,0, pclath, cstack
  3302 ;; Tracked objects:
  3303 ;;		On entry : 0/0
  3304 ;;		On exit  : 0/0
  3305 ;;		Unchanged: 0/0
  3306 ;; Data sizes:     COMMON   BANK0   BANK1   BANK3   BANK2
  3307 ;;      Params:         0       0       0       0       0
  3308 ;;      Locals:         0       0       0       0       0
  3309 ;;      Temps:          0       0       0       0       0
  3310 ;;      Totals:         0       0       0       0       0
  3311 ;;Total ram usage:        0 bytes
  3312 ;; Hardware stack levels used: 1
  3313 ;; Hardware stack levels required when called: 1
  3314 ;; This function calls:
  3315 ;;		_I2C_Master_Wait
  3316 ;; This function is called by:
  3317 ;;		_main
  3318 ;; This function uses a non-reentrant model
  3319 ;;
  3320                           
  3321     0306                     _I2C_Master_Stop:	
  3322                           ;psect for function _I2C_Master_Stop
  3323                           
  3324     0306                     l1491:	
  3325                           ;incstack = 0
  3326                           ; Regs used in _I2C_Master_Stop: [wreg+status,2+status,0+pclath+cstack]
  3327                           
  3328                           
  3329                           ;configI2C.c: 54:     I2C_Master_Wait();
  3330     0306  120A  118A  2319  120A  118A  	fcall	_I2C_Master_Wait
  3331     030B                     l1493:
  3332                           
  3333                           ;configI2C.c: 55:     SSPCON2bits.PEN = 1;
  3334     030B  1683               	bsf	3,5	;RP0=1, select bank1
  3335     030C  1303               	bcf	3,6	;RP1=0, select bank1
  3336     030D  1511               	bsf	17,2	;volatile
  3337     030E                     l44:
  3338     030E  0008               	return
  3339     030F                     __end_of_I2C_Master_Stop:
  3340                           
  3341                           	psect	text18
  3342     02FD                     __ptext18:	
  3343 ;; *************** function _I2C_Master_Start *****************
  3344 ;; Defined at:
  3345 ;;		line 36 in file "configI2C.c"
  3346 ;; Parameters:    Size  Location     Type
  3347 ;;		None
  3348 ;; Auto vars:     Size  Location     Type
  3349 ;;		None
  3350 ;; Return value:  Size  Location     Type
  3351 ;;                  1    wreg      void 
  3352 ;; Registers used:
  3353 ;;		wreg, status,2, status,0, pclath, cstack
  3354 ;; Tracked objects:
  3355 ;;		On entry : 0/0
  3356 ;;		On exit  : 0/0
  3357 ;;		Unchanged: 0/0
  3358 ;; Data sizes:     COMMON   BANK0   BANK1   BANK3   BANK2
  3359 ;;      Params:         0       0       0       0       0
  3360 ;;      Locals:         0       0       0       0       0
  3361 ;;      Temps:          0       0       0       0       0
  3362 ;;      Totals:         0       0       0       0       0
  3363 ;;Total ram usage:        0 bytes
  3364 ;; Hardware stack levels used: 1
  3365 ;; Hardware stack levels required when called: 1
  3366 ;; This function calls:
  3367 ;;		_I2C_Master_Wait
  3368 ;; This function is called by:
  3369 ;;		_main
  3370 ;; This function uses a non-reentrant model
  3371 ;;
  3372                           
  3373     02FD                     _I2C_Master_Start:	
  3374                           ;psect for function _I2C_Master_Start
  3375                           
  3376     02FD                     l1487:	
  3377                           ;incstack = 0
  3378                           ; Regs used in _I2C_Master_Start: [wreg+status,2+status,0+pclath+cstack]
  3379                           
  3380                           
  3381                           ;configI2C.c: 38:     I2C_Master_Wait();
  3382     02FD  120A  118A  2319  120A  118A  	fcall	_I2C_Master_Wait
  3383     0302                     l1489:
  3384                           
  3385                           ;configI2C.c: 39:     SSPCON2bits.SEN = 1;
  3386     0302  1683               	bsf	3,5	;RP0=1, select bank1
  3387     0303  1303               	bcf	3,6	;RP1=0, select bank1
  3388     0304  1411               	bsf	17,0	;volatile
  3389     0305                     l38:
  3390     0305  0008               	return
  3391     0306                     __end_of_I2C_Master_Start:
  3392                           
  3393                           	psect	text19
  3394     03C5                     __ptext19:	
  3395 ;; *************** function _I2C_Master_Read *****************
  3396 ;; Defined at:
  3397 ;;		line 71 in file "configI2C.c"
  3398 ;; Parameters:    Size  Location     Type
  3399 ;;  a               2    0[COMMON] unsigned short 
  3400 ;; Auto vars:     Size  Location     Type
  3401 ;;  temp            2    4[COMMON] unsigned short 
  3402 ;; Return value:  Size  Location     Type
  3403 ;;                  2    0[COMMON] unsigned short 
  3404 ;; Registers used:
  3405 ;;		wreg, status,2, status,0, pclath, cstack
  3406 ;; Tracked objects:
  3407 ;;		On entry : 0/0
  3408 ;;		On exit  : 0/0
  3409 ;;		Unchanged: 0/0
  3410 ;; Data sizes:     COMMON   BANK0   BANK1   BANK3   BANK2
  3411 ;;      Params:         2       0       0       0       0
  3412 ;;      Locals:         2       0       0       0       0
  3413 ;;      Temps:          2       0       0       0       0
  3414 ;;      Totals:         6       0       0       0       0
  3415 ;;Total ram usage:        6 bytes
  3416 ;; Hardware stack levels used: 1
  3417 ;; Hardware stack levels required when called: 1
  3418 ;; This function calls:
  3419 ;;		_I2C_Master_Wait
  3420 ;; This function is called by:
  3421 ;;		_main
  3422 ;; This function uses a non-reentrant model
  3423 ;;
  3424                           
  3425     03C5                     _I2C_Master_Read:	
  3426                           ;psect for function _I2C_Master_Read
  3427                           
  3428     03C5                     l1499:	
  3429                           ;incstack = 0
  3430                           ; Regs used in _I2C_Master_Read: [wreg+status,2+status,0+pclath+cstack]
  3431                           
  3432                           
  3433                           ;configI2C.c: 71: unsigned short I2C_Master_Read(unsigned short a);configI2C.c: 72: {;co
      +                          nfigI2C.c: 73:     unsigned short temp;;configI2C.c: 74:     I2C_Master_Wait();
  3434     03C5  120A  118A  2319  120A  118A  	fcall	_I2C_Master_Wait
  3435     03CA                     l1501:
  3436                           
  3437                           ;configI2C.c: 75:     SSPCON2bits.RCEN = 1;
  3438     03CA  1683               	bsf	3,5	;RP0=1, select bank1
  3439     03CB  1303               	bcf	3,6	;RP1=0, select bank1
  3440     03CC  1591               	bsf	17,3	;volatile
  3441                           
  3442                           ;configI2C.c: 76:     I2C_Master_Wait();
  3443     03CD  120A  118A  2319  120A  118A  	fcall	_I2C_Master_Wait
  3444     03D2                     l1503:
  3445                           
  3446                           ;configI2C.c: 77:     temp = SSPBUF;
  3447     03D2  1283               	bcf	3,5	;RP0=0, select bank0
  3448     03D3  1303               	bcf	3,6	;RP1=0, select bank0
  3449     03D4  0813               	movf	19,w	;volatile
  3450     03D5  00F2               	movwf	??_I2C_Master_Read
  3451     03D6  01F3               	clrf	??_I2C_Master_Read+1
  3452     03D7  0872               	movf	??_I2C_Master_Read,w
  3453     03D8  00F4               	movwf	I2C_Master_Read@temp
  3454     03D9  0873               	movf	??_I2C_Master_Read+1,w
  3455     03DA  00F5               	movwf	I2C_Master_Read@temp+1
  3456     03DB                     l1505:
  3457                           
  3458                           ;configI2C.c: 78:     I2C_Master_Wait();
  3459     03DB  120A  118A  2319  120A  118A  	fcall	_I2C_Master_Wait
  3460     03E0                     l1507:
  3461                           
  3462                           ;configI2C.c: 79:     if(a == 1){
  3463     03E0  0370               	decf	I2C_Master_Read@a,w
  3464     03E1  0471               	iorwf	I2C_Master_Read@a+1,w
  3465     03E2  1D03               	btfss	3,2
  3466     03E3  2BE5               	goto	u921
  3467     03E4  2BE6               	goto	u920
  3468     03E5                     u921:
  3469     03E5  2BEA               	goto	l50
  3470     03E6                     u920:
  3471     03E6                     l1509:
  3472                           
  3473                           ;configI2C.c: 80:         SSPCON2bits.ACKDT = 0;
  3474     03E6  1683               	bsf	3,5	;RP0=1, select bank1
  3475     03E7  1303               	bcf	3,6	;RP1=0, select bank1
  3476     03E8  1291               	bcf	17,5	;volatile
  3477                           
  3478                           ;configI2C.c: 81:     }else{
  3479     03E9  2BED               	goto	l51
  3480     03EA                     l50:
  3481                           
  3482                           ;configI2C.c: 82:         SSPCON2bits.ACKDT = 1;
  3483     03EA  1683               	bsf	3,5	;RP0=1, select bank1
  3484     03EB  1303               	bcf	3,6	;RP1=0, select bank1
  3485     03EC  1691               	bsf	17,5	;volatile
  3486     03ED                     l51:	
  3487                           ;configI2C.c: 83:     }
  3488                           
  3489                           
  3490                           ;configI2C.c: 84:     SSPCON2bits.ACKEN = 1;
  3491     03ED  1611               	bsf	17,4	;volatile
  3492     03EE                     l1511:
  3493                           
  3494                           ;configI2C.c: 85:     return temp;
  3495     03EE  0875               	movf	I2C_Master_Read@temp+1,w
  3496     03EF  00F1               	movwf	?_I2C_Master_Read+1
  3497     03F0  0874               	movf	I2C_Master_Read@temp,w
  3498     03F1  00F0               	movwf	?_I2C_Master_Read
  3499     03F2                     l52:
  3500     03F2  0008               	return
  3501     03F3                     __end_of_I2C_Master_Read:
  3502                           
  3503                           	psect	text20
  3504     0319                     __ptext20:	
  3505 ;; *************** function _I2C_Master_Wait *****************
  3506 ;; Defined at:
  3507 ;;		line 29 in file "configI2C.c"
  3508 ;; Parameters:    Size  Location     Type
  3509 ;;		None
  3510 ;; Auto vars:     Size  Location     Type
  3511 ;;		None
  3512 ;; Return value:  Size  Location     Type
  3513 ;;                  1    wreg      void 
  3514 ;; Registers used:
  3515 ;;		wreg, status,2
  3516 ;; Tracked objects:
  3517 ;;		On entry : 0/0
  3518 ;;		On exit  : 0/0
  3519 ;;		Unchanged: 0/0
  3520 ;; Data sizes:     COMMON   BANK0   BANK1   BANK3   BANK2
  3521 ;;      Params:         0       0       0       0       0
  3522 ;;      Locals:         0       0       0       0       0
  3523 ;;      Temps:          0       0       0       0       0
  3524 ;;      Totals:         0       0       0       0       0
  3525 ;;Total ram usage:        0 bytes
  3526 ;; Hardware stack levels used: 1
  3527 ;; This function calls:
  3528 ;;		Nothing
  3529 ;; This function is called by:
  3530 ;;		_I2C_Master_Start
  3531 ;;		_I2C_Master_Stop
  3532 ;;		_I2C_Master_Write
  3533 ;;		_I2C_Master_Read
  3534 ;;		_I2C_Master_RepeatedStart
  3535 ;; This function uses a non-reentrant model
  3536 ;;
  3537                           
  3538     0319                     _I2C_Master_Wait:	
  3539                           ;psect for function _I2C_Master_Wait
  3540                           
  3541     0319                     l1401:	
  3542                           ;incstack = 0
  3543                           ; Regs used in _I2C_Master_Wait: [wreg+status,2]
  3544                           
  3545     0319                     l32:	
  3546                           ;configI2C.c: 31:     while ((SSPSTAT & 0x04) || (SSPCON2 & 0x1F));
  3547                           
  3548     0319  1683               	bsf	3,5	;RP0=1, select bank1
  3549     031A  1303               	bcf	3,6	;RP1=0, select bank1
  3550     031B  1914               	btfsc	20,2	;volatile
  3551     031C  2B1E               	goto	u761
  3552     031D  2B1F               	goto	u760
  3553     031E                     u761:
  3554     031E  2B19               	goto	l32
  3555     031F                     u760:
  3556     031F                     l1403:
  3557     031F  0811               	movf	17,w	;volatile
  3558     0320  391F               	andlw	31
  3559     0321  1D03               	btfss	3,2
  3560     0322  2B24               	goto	u771
  3561     0323  2B25               	goto	u770
  3562     0324                     u771:
  3563     0324  2B19               	goto	l32
  3564     0325                     u770:
  3565     0325                     l35:
  3566     0325  0008               	return
  3567     0326                     __end_of_I2C_Master_Wait:
  3568     007E                     btemp	set	126	;btemp
  3569     007E                     wtemp0	set	126
  3570                           
  3571                           	psect	idloc
  3572                           
  3573                           ;Config register IDLOC0 @ 0x2000
  3574                           ;	unspecified, using default values
  3575     2000                     	org	8192
  3576     2000  3FFF               	dw	16383
  3577                           
  3578                           ;Config register IDLOC1 @ 0x2001
  3579                           ;	unspecified, using default values
  3580     2001                     	org	8193
  3581     2001  3FFF               	dw	16383
  3582                           
  3583                           ;Config register IDLOC2 @ 0x2002
  3584                           ;	unspecified, using default values
  3585     2002                     	org	8194
  3586     2002  3FFF               	dw	16383
  3587                           
  3588                           ;Config register IDLOC3 @ 0x2003
  3589                           ;	unspecified, using default values
  3590     2003                     	org	8195
  3591     2003  3FFF               	dw	16383
  3592                           
  3593                           	psect	config
  3594                           
  3595                           ;Config register CONFIG1 @ 0x2007
  3596                           ;	Oscillator Selection bits
  3597                           ;	FOSC = INTRC_NOCLKOUT, INTOSCIO oscillator: I/O function on RA6/OSC2/CLKOUT pin, I/O f
      +                          unction on RA7/OSC1/CLKIN
  3598                           ;	Watchdog Timer Enable bit
  3599                           ;	WDTE = OFF, WDT disabled and can be enabled by SWDTEN bit of the WDTCON register
  3600                           ;	Power-up Timer Enable bit
  3601                           ;	PWRTE = OFF, PWRT disabled
  3602                           ;	RE3/MCLR pin function select bit
  3603                           ;	MCLRE = OFF, RE3/MCLR pin function is digital input, MCLR internally tied to VDD
  3604                           ;	Code Protection bit
  3605                           ;	CP = OFF, Program memory code protection is disabled
  3606                           ;	Data Code Protection bit
  3607                           ;	CPD = OFF, Data memory code protection is disabled
  3608                           ;	Brown Out Reset Selection bits
  3609                           ;	BOREN = OFF, BOR disabled
  3610                           ;	Internal External Switchover bit
  3611                           ;	IESO = OFF, Internal/External Switchover mode is disabled
  3612                           ;	Fail-Safe Clock Monitor Enabled bit
  3613                           ;	FCMEN = OFF, Fail-Safe Clock Monitor is disabled
  3614                           ;	Low Voltage Programming Enable bit
  3615                           ;	LVP = OFF, RB3 pin has digital I/O, HV on MCLR must be used for programming
  3616                           ;	In-Circuit Debugger Mode bit
  3617                           ;	DEBUG = 0x1, unprogramme  3618     2007                     	org	8199
  3619     2007  20D4               	dw	8404
  3620                           
  3621                           ;Config register CONFIG2 @ 0x2008
  3622                           ;	Brown-out Reset Selection bit
  3623                           ;	BOR4V = BOR40V, Brown-out Reset set to 4.0V
  3624                           ;	Flash Program Memory Self Write Enable bits
  3625                           ;	WRT = OFF, Write protection off
  3626     2008                     	org	8200
  3627     2008  3FFF               	dw	16383

Data Sizes:
    Strings     17
    Constant    10
    Data        0
    BSS         22
    Persistent  0
    Stack       0

Auto Spaces:
    Space          Size  Autos    Used
    COMMON           14     14      14
    BANK0            80     19      41
    BANK1            80      0       0
    BANK3            96      0       0
    BANK2            96      0       0

Pointer List with Targets:

    sprintf@f	PTR const unsigned char  size(1) Largest target is 17
		 -> STR_1(CODE[17]), 

    sprintf@sp	PTR unsigned char  size(1) Largest target is 16
		 -> distanciaLCD(BANK0[16]), 

    sprintf@ap	PTR void [1] size(1) Largest target is 2
		 -> ?_sprintf(BANK0[2]), 

    Lcd_Write_String_4bits@a	PTR unsigned char  size(1) Largest target is 16
		 -> distanciaLCD(BANK0[16]), 


Critical Paths under _main in COMMON

    _main->___xxtofl
    _sprintf->___lwmod
    ___lwmod->___lwdiv
    _Lcd_Init_4bits->_Lcd_Cmd_4bits
    _I2C_Master_Init->___lldiv
    ___xxtofl->_I2C_Master_Read
    _Lcd_Write_String_4bits->_Lcd_Write_Char_4bits
    _Lcd_Write_Char_4bits->_Lcd_Port_4bits
    _Lcd_Set_Cursor_4bits->_Lcd_Cmd_4bits
    _Lcd_Clear_4bits->_Lcd_Cmd_4bits
    _Lcd_Cmd_4bits->_Lcd_Port_4bits

Critical Paths under _main in BANK0

    _main->_sprintf
    _setup->_I2C_Master_Init

Critical Paths under _main in BANK1

    None.

Critical Paths under _main in BANK3

    None.

Critical Paths under _main in BANK2

    None.

Call Graph Tables:

 ---------------------------------------------------------------------------------
 (Depth) Function   	        Calls       Base Space   Used Autos Params    Refs
 ---------------------------------------------------------------------------------
 (0) _main                                                 4     4      0    3403
                                             15 BANK0      4     4      0
                    _I2C_Master_Read
                   _I2C_Master_Start
                    _I2C_Master_Stop
                   _I2C_Master_Write
                    _Lcd_Clear_4bits
               _Lcd_Set_Cursor_4bits
             _Lcd_Write_String_4bits
                           ___xxtofl
                              _setup
                            _sprintf
 ---------------------------------------------------------------------------------
 (1) _sprintf                                             23    18      5    1211
                                              0 BANK0     15    10      5
                            ___lwdiv
                            ___lwmod
 ---------------------------------------------------------------------------------
 (2) ___lwmod                                              6     2      4     311
                                              8 COMMON     6     2      4
                            ___lwdiv (ARG)
 ---------------------------------------------------------------------------------
 (2) ___lwdiv                                              8     4      4     314
                                              0 COMMON     8     4      4
 ---------------------------------------------------------------------------------
 (1) _setup                                                0     0      0     632
                    _I2C_Master_Init
                     _Lcd_Init_4bits
                        _setupINTOSC
 ---------------------------------------------------------------------------------
 (2) _setupINTOSC                                          2     2      0      22
                                              0 COMMON     2     2      0
 ---------------------------------------------------------------------------------
 (2) _Lcd_Init_4bits                                       2     2      0     198
                                              4 COMMON     2     2      0
                      _Lcd_Cmd_4bits
                     _Lcd_Port_4bits
 ---------------------------------------------------------------------------------
 (2) _I2C_Master_Init                                      8     4      4     412
                                              0 BANK0      8     4      4
                            ___lldiv
 ---------------------------------------------------------------------------------
 (3) ___lldiv                                             14     6      8     314
                                              0 COMMON    14     6      8
 ---------------------------------------------------------------------------------
 (1) ___xxtofl                                            14    10      4     474
                                              6 COMMON     8     4      4
                                              0 BANK0      6     6      0
                    _I2C_Master_Read (ARG)
 ---------------------------------------------------------------------------------
 (1) _Lcd_Write_String_4bits                               4     4      0     301
                                              5 COMMON     4     4      0
               _Lcd_Write_Char_4bits
 ---------------------------------------------------------------------------------
 (2) _Lcd_Write_Char_4bits                                 4     4      0     178
                                              1 COMMON     4     4      0
                     _Lcd_Port_4bits
 ---------------------------------------------------------------------------------
 (1) _Lcd_Set_Cursor_4bits                                 6     5      1     456
                                              4 COMMON     6     5      1
                      _Lcd_Cmd_4bits
 ---------------------------------------------------------------------------------
 (1) _Lcd_Clear_4bits                                      0     0      0     110
                      _Lcd_Cmd_4bits
 ---------------------------------------------------------------------------------
 (3) _Lcd_Cmd_4bits                                        3     3      0     110
                                              1 COMMON     3     3      0
                     _Lcd_Port_4bits
 ---------------------------------------------------------------------------------
 (3) _Lcd_Port_4bits                                       1     1      0      88
                                              0 COMMON     1     1      0
 ---------------------------------------------------------------------------------
 (1) _I2C_Master_Write                                     2     0      2      98
                                              0 COMMON     2     0      2
                    _I2C_Master_Wait
 ---------------------------------------------------------------------------------
 (1) _I2C_Master_Stop                                      0     0      0       0
                    _I2C_Master_Wait
 ---------------------------------------------------------------------------------
 (1) _I2C_Master_Start                                     0     0      0       0
                    _I2C_Master_Wait
 ---------------------------------------------------------------------------------
 (1) _I2C_Master_Read                                      6     4      2     121
                                              0 COMMON     6     4      2
                    _I2C_Master_Wait
 ---------------------------------------------------------------------------------
 (2) _I2C_Master_Wait                                      0     0      0       0
 ---------------------------------------------------------------------------------
 Estimated maximum stack depth 3
 ---------------------------------------------------------------------------------

 Call Graph Graphs:

 _main (ROOT)
   _I2C_Master_Read
     _I2C_Master_Wait
   _I2C_Master_Start
     _I2C_Master_Wait
   _I2C_Master_Stop
     _I2C_Master_Wait
   _I2C_Master_Write
     _I2C_Master_Wait
   _Lcd_Clear_4bits
     _Lcd_Cmd_4bits
       _Lcd_Port_4bits
   _Lcd_Set_Cursor_4bits
     _Lcd_Cmd_4bits
   _Lcd_Write_String_4bits
     _Lcd_Write_Char_4bits
       _Lcd_Port_4bits
   ___xxtofl
     _I2C_Master_Read (ARG)
   _setup
     _I2C_Master_Init
       ___lldiv
     _Lcd_Init_4bits
       _Lcd_Cmd_4bits
       _Lcd_Port_4bits
     _setupINTOSC
   _sprintf
     ___lwdiv
     ___lwmod
       ___lwdiv (ARG)

 Address spaces:
Name               Size   Autos  Total    Cost      Usage
BITCOMMON            E      0       0       0        0.0%
EEDATA             100      0       0       0        0.0%
NULL                 0      0       0       0        0.0%
CODE                 0      0       0       0        0.0%
COMMON               E      E       E       1      100.0%
BITSFR0              0      0       0       1        0.0%
SFR0                 0      0       0       1        0.0%
BITSFR1              0      0       0       2        0.0%
SFR1                 0      0       0       2        0.0%
STACK                0      0       0       2        0.0%
ABS                  0      0      37       3        0.0%
BITBANK0            50      0       0       4        0.0%
BITSFR3              0      0       0       4        0.0%
SFR3                 0      0       0       4        0.0%
BANK0               50     13      29       5       51.2%
BITSFR2              0      0       0       5        0.0%
SFR2                 0      0       0       5        0.0%
BITBANK1            50      0       0       6        0.0%
BANK1               50      0       0       7        0.0%
BITBANK3            60      0       0       8        0.0%
BANK3               60      0       0       9        0.0%
BITBANK2            60      0       0      10        0.0%
BANK2               60      0       0      11        0.0%
DATA                 0      0      37      12        0.0%


Microchip Technology PIC Macro Assembler V2.40 build 20220703182018 
Symbol Table                                                                                   Wed Mar 08 22:53:42 2023

                             pc 0002                              l32 0319                              l50 03EA  
                            l35 0325                              l51 03ED                              l52 03F2  
                            l44 030E                              l60 033F                              l29 045F  
                            l38 0305                              l70 038E                              l47 0318  
                            l71 0394                              l72 0395                              l73 039B  
                            l81 0332                              l90 0580                              l75 039C  
                            l67 0384                              l68 0387                              l69 038D  
                            l93 0427                              l78 0359                              l87 0523  
                            l99 037A                              fsr 0004                             l162 03C4  
                           l156 05F1                             l355 07F2                             l631 04DD  
                           l641 0499                             l395 05E6                             l805 06E2  
                           l806 06EE                             l792 0683                             l794 0718  
                           l798 06C6                             _GIE 005F                             _PR2 0092  
                           u700 05A5                             u701 05A4                             u640 0380  
                           u720 05C0                             u641 037F                             u721 05BF  
                           u650 038B                             u810 04B4                             u651 038A  
                           u715 05A7                             u811 04B3                             u660 0392  
                           u740 05DE                             u661 0391                             u741 05DD  
                           u725 05BC                             u805 04A6                             u670 0399  
                           u750 043F                             u830 04C5                             u910 0495  
                           u671 0398                             u735 05D0                             u831 04C4  
                           u911 0494                             u760 031F                             u920 03E6  
                           u680 0591                             u761 031E                             u921 03E5  
                           u681 0590                             u825 04B5                             u905 0489  
                           u770 0325                             u930 04E4                             u850 04D9  
                           u771 0324                             u931 04E3                             u755 043A  
                           u851 04D8                             u835 04C1                             u860 0466  
                           u845 04CD                             u861 0465                             u950 0507  
                           u790 04A2                             u951 0506                             u695 0596  
                           u791 04A1                             u880 0478                             u945 04EA  
                           u785 0400                             u881 0477                             u970 037A  
                           u890 0482                             u971 0379                             u891 0481  
                           u875 046A                             u980 0725                             u965 050D  
                           u981 0724                             u990 075D                             u895 047E  
                           u991 075C                             fsr0 0004                             indf 0000  
                          l1401 0319                            l1403 031F                            l1411 052A  
                          l1501 03CA                            l1421 03FA                            l1413 0533  
                          l1405 0334                            l1511 03EE                            l1503 03D2  
                          l1351 0392                            l1431 0416                            l1423 03FD  
                          l1415 0542                            l1407 033E                            l1505 03DB  
                          l1353 0399                            l1345 037C                            l1361 034D  
                          l1521 04F1                            l1433 041C                            l1425 040B  
                          l1417 0548                            l1409 0524                            l1441 049C  
                          l1601 0794                            l1507 03E0                            l1347 0380  
                          l1363 0356                            l1355 0341                            l1515 0326  
                          l1531 0514                            l1523 04F4                            l1435 041F  
                          l1427 040E                            l1419 03F4                            l1371 05A1  
                          l1451 04B4                            l1443 04A2                            l1611 07D1  
                          l1603 0799                            l1509 03E6                            l1349 038B  
                          l1357 0344                            l1533 0517                            l1525 04FA  
                          l1517 04DF                            l1437 0424                            l1429 0413  
                          l1541 0369                            l1381 05CF                            l1373 05A5  
                          l1365 0581                            l1453 04C5                            l1445 04A5  
                          l1461 04D9                            l1613 07D5                            l1605 079D  
                          l1359 034A                            l1535 051D                            l1519 04E4  
                          l1527 0501                            l1543 036F                            l1631 067B  
                          l1383 05D8                            l1375 05AE                            l1367 0591  
                          l1391 042C                            l1551 03A7                            l1455 04CB  
                          l1447 04AC                            l1439 049A                            l1471 0470  
                          l1607 07A0                            l1615 07DE                            l1529 0507  
                          l1537 035B                            l1641 06A4                            l1633 068B  
                          l1625 0662                            l1377 05C0                            l1369 0594  
                          l1385 05DE                            l1393 042F                            l1561 03BF  
                          l1553 03AA                            l1545 039D                            l1457 04CC  
                          l1449 04B0                            l1481 048F                            l1473 0474  
                          l1465 0460                            l1609 07CC                            l1617 07EE  
                          l1491 0306                            l1539 035E                            l1651 06D8  
                          l1643 06AB                            l1627 0667                            l1379 05CE  
                          l1395 045C                            l1555 03AB                            l1547 03A4  
                          l1459 04D3                            l1475 0478                            l1467 0466  
                          l1483 0495                            l1571 072F                            l1563 071C  
                          l1493 030B                            l1661 070B                            l1653 06DC  
                          l1645 06AF                            l1637 0694                            l1629 066B  
                          l1397 045D                            l1389 0428                            l1557 03AC  
                          l1549 03A6                            l1477 0482                            l1469 0469  
                          l1581 0759                            l1565 071F                            l1487 02FD  
                          l1495 030F                            l1663 070F                            l1655 06E6  
                          l1647 06BD                            l1639 0697                            l1399 045E  
                          l1559 03B9                            l1479 0488                            l1583 075D  
                          l1727 0742                            l1575 0730                            l1567 0725  
                          l1489 0302                            l1497 0314                            l1665 0710  
                          l1657 06F0                            l1649 06CD                            l1593 0768  
                          l1585 0761                            l1577 074D                            l1569 072A  
                          l1681 063B                            l1499 03C5                            l1659 0706  
                          l1587 0766                            l1579 0755                            l1683 064D  
                          l1597 0784                            l1685 0655                            l1677 05E7  
                          l1599 078E                            l1679 062C                            STR_1 0013  
                          u1000 0783                            u1001 0782                            u1010 078E  
                          u1011 078D                            u1020 0794                            u1021 0793  
                          u1005 077F                            u1110 06CC                            u1030 07DE  
                          u1111 06CB                            u1031 07DD                            u1040 07EE  
                          u1105 06BE                            u1041 07ED                            u1130 06DC  
                          u1050 0667                            u1131 06DB                            u1051 0666  
                          u1140 06E2                            u1060 066B                            u1141 06E1  
                          u1125 06D1                            u1061 066A                            u1150 06E6  
                          u1070 068B                            u1151 06E5                            u1071 068A  
                          u1160 06FB                            u1217 0634                            u1170 070B  
                          u1090 06AA                            u1171 070A                            u1091 06A9  
                          u1227 052E                            u1180 070F                            _IOCB 0096  
                          u1181 070E                            u1165 06F6                            u1085 069C  
                          u1237 053D                            u1247 054C                            u1257 0410  
                          u1267 0421                            u1277 0351                            _PEIE 005E  
                          _TMR1 000E                            _main 05E7          _Lcd_Write_String_4bits 035A  
                          btemp 007E                            start 0000                ?_I2C_Master_Init 0036  
              ?_I2C_Master_Read 0070                ?_I2C_Master_Wait 0070                ?_I2C_Master_Stop 0070  
                         ?_main 0070               ??_Lcd_Clear_4bits 0074                           _ANSEL 0188  
               __end_of___lldiv 05E7                 __end_of___lwdiv 04DE                 __end_of___lwmod 049A  
                         _PORTA 0005                           _PORTB 0006                           _PORTD 0008  
                         _TRISA 0085                           _TRISB 0086                           _TRISD 0088  
                         _SSPIE 0463                           _SSPIF 0063           __end_of_Lcd_Cmd_4bits 035A  
               __end_of_dpowers 0013                           _setup 039D                           pclath 000A  
                         status 0003                           wtemp0 007E                 __end_of_sprintf 07F3  
               __initialization 07F3                    __end_of_main 065F                          ??_main 0045  
             ?_I2C_Master_Start 0070               ?_I2C_Master_Write 0070              ??_I2C_Master_Start 0070  
            ??_I2C_Master_Write 0072                          _CCPR1L 0015                          _CCPR2L 001B  
                        ?_setup 0070                          _ANSELH 0189                          _SSPADD 0093  
                        _TRISC3 043B                          _TRISC4 043C                          _SSPCON 0014  
                        _SSPBUF 0013                __end_of___xxtofl 0719        Lcd_Write_Char_4bits@temp 0072  
                     ??___lldiv 0078                       ??___lwdiv 0074                       ??___lwmod 007C  
                  ?_setupINTOSC 0070                  _Lcd_Init_4bits 0524                       ??_sprintf 003B  
                  ___xxtofl@arg 0038                    ___xxtofl@exp 0037                    ___xxtofl@val 0076  
       __end_of__initialization 07FC                  __pcstackCOMMON 0070           Lcd_Write_Char_4bits@a 0074  
         Lcd_Write_Char_4bits@y 0073                   __end_of_setup 03C5                  _OPTION_REGbits 0081  
        __end_of_Lcd_Init_4bits 0581         ?_Lcd_Write_String_4bits 0070                         ??_setup 007E  
                    __pbssBANK0 0020                  _Lcd_Port_4bits 037B                 _Lcd_Clear_4bits 0326  
                    __pmaintext 05E7                       ?___xxtofl 0076    __end_of_Lcd_Write_Char_4bits 0428  
               Lcd_Port_4bits@a 0070                 ?_Lcd_Init_4bits 0070  __end_of_Lcd_Write_String_4bits 037B  
                       _SSPCON2 0091                         _SSPSTAT 0094                      __stringtab 0003  
        __end_of_Lcd_Port_4bits 039D                         ___lldiv 0581                         ___lwdiv 049A  
                       ___lwmod 0460                         __ptext1 0719                         __ptext2 0460  
                       __ptext3 049A                         __ptext4 039D                         __ptext5 0333  
                       __ptext6 0524                         __ptext7 0428                         __ptext8 0581  
                       __ptext9 065F                       _T1CONbits 0010                         _dpowers 0009  
                     _T2CONbits 0012                      ??___xxtofl 007A    __end_of_Lcd_Set_Cursor_4bits 0524  
                       _sprintf 0719                         clrloop0 02F6            end_of_initialization 07FC  
               ?_Lcd_Port_4bits 0070         __end_of_Lcd_Clear_4bits 0333                 ___lldiv@divisor 0070  
               ___lldiv@counter 007D                I2C_Master_Init@c 0036                I2C_Master_Read@a 0070  
                  _distanciaLCD 0026                       _PORTAbits 0005                       _PORTBbits 0006  
                     _PORTDbits 0008                   ___xxtofl@sign 0036                       _TRISAbits 0085  
                     _TRISCbits 0087                     _CCP1CONbits 0017                     _CCP2CONbits 001D  
          _Lcd_Write_Char_4bits 03F3             start_initialization 07F3                   _Lcd_Cmd_4bits 0340  
         Lcd_Set_Cursor_4bits@a 0076           Lcd_Set_Cursor_4bits@b 0074           Lcd_Set_Cursor_4bits@y 0078  
         Lcd_Set_Cursor_4bits@z 0077                ?_Lcd_Clear_4bits 0070               ??_I2C_Master_Init 003A  
             ??_I2C_Master_Read 0072               ??_I2C_Master_Wait 0070               ??_I2C_Master_Stop 0070  
         ?_Lcd_Write_Char_4bits 0070        Lcd_Set_Cursor_4bits@temp 0079            _Lcd_Set_Cursor_4bits 04DE  
              ??_Lcd_Init_4bits 0074                       ___latbits 0002                   __pcstackBANK0 0036  
                ?_Lcd_Cmd_4bits 0070                     sprintf@flag 003F                     sprintf@prec 0040  
              _I2C_Master_Start 02FD                _I2C_Master_Write 030F                ___lwdiv@dividend 0072  
         ?_Lcd_Set_Cursor_4bits 0074                        ?___lldiv 0070                        ?___lwdiv 0070  
                      ?___lwmod 0078                       __pstrings 0003                       _distancia 0020  
              ??_Lcd_Port_4bits 0070                ___lwdiv@quotient 0075                        ?_sprintf 0036  
                     clear_ram0 02F5          ??_Lcd_Write_Char_4bits 0071                        _PIR1bits 000C  
                     _velocidad 0024                     __stringbase 0008                   ??_setupINTOSC 0070  
               ??_Lcd_Cmd_4bits 0071                        _WPUBbits 0095             I2C_Master_Read@temp 0074  
       Lcd_Write_String_4bits@a 0078         Lcd_Write_String_4bits@i 0076          ??_Lcd_Set_Cursor_4bits 0075  
            __end_of__stringtab 0009        ??_Lcd_Write_String_4bits 0075                  Lcd_Cmd_4bits@a 0073  
                    sprintf@val 0041                 _I2C_Master_Init 0428                 _I2C_Master_Read 03C5  
                      ___xxtofl 065F                 _I2C_Master_Wait 0319                 _I2C_Master_Stop 0306  
               ___lwdiv@divisor 0070                 ___lwdiv@counter 0077                        __ptext10 035A  
                      __ptext11 03F3                        __ptext20 0319                        __ptext12 04DE  
                      __ptext13 0326                        __ptext14 0340                        __ptext15 037B  
                      __ptext16 030F                        __ptext17 0306                        __ptext18 02FD  
                      __ptext19 03C5             __end_of_setupINTOSC 0340        __end_of_I2C_Master_Start 0306  
      __end_of_I2C_Master_Write 0319                       sprintf@ap 003E                       sprintf@sp 0043  
              ___lwmod@dividend 007A                ___lldiv@dividend 0074                       stringcode 0003  
                    _OSCCONbits 008F         __end_of_I2C_Master_Init 0460         __end_of_I2C_Master_Read 03F3  
       __end_of_I2C_Master_Wait 0326         __end_of_I2C_Master_Stop 030F                     _setupINTOSC 0333  
                      sprintf@c 0044                        sprintf@f 0036                    setupINTOSC@F 0071  
              ___lldiv@quotient 0079               I2C_Master_Write@d 0070                 ___lwmod@divisor 0078  
               ___lwmod@counter 007D                        stringdir 0003                        stringtab 0003  
                   _SSPCON2bits 0091  
